---
triple:          'arm64-apple-darwin'
binary-path:     test21
relocations:
  - { offset: 0x3F, size: 0x8, addend: 0x0, symName: _mutex1, symObjAddr: 0x2B0D0, symBinAddr: 0x100024078, symSize: 0x0 }
  - { offset: 0x58AD, size: 0x8, addend: 0x0, symName: __ZNSt3__124__put_character_sequenceB8ne180100IcNS_11char_traitsIcEEEERNS_13basic_ostreamIT_T0_EES7_PKS4_m, symObjAddr: 0x16EC, symBinAddr: 0x10000451C, symSize: 0x1EC }
  - { offset: 0x6739, size: 0x8, addend: 0x0, symName: __ZNSt3__1lsB8ne180100INS_11char_traitsIcEEEERNS_13basic_ostreamIcT_EES6_PKc, symObjAddr: 0x180, symBinAddr: 0x100002FB0, symSize: 0x48 }
  - { offset: 0x677F, size: 0x8, addend: 0x0, symName: __ZNSt3__14endlB8ne180100IcNS_11char_traitsIcEEEERNS_13basic_ostreamIT_T0_EES7_, symObjAddr: 0x1F4, symBinAddr: 0x100003024, symSize: 0x58 }
  - { offset: 0x67BF, size: 0x8, addend: 0x0, symName: __ZNSt3__1neB8ne180100ERKNS_16__deque_iteratorINS_10unique_ptrI13ThreadContextNS_14default_deleteIS2_EEEEPS5_RS5_PS6_lLl512EEESB_, symObjAddr: 0x8F0, symBinAddr: 0x100003720, symSize: 0x34 }
  - { offset: 0x67FC, size: 0x8, addend: 0x0, symName: __ZNSt3__1eqB8ne180100ERKNS_16__deque_iteratorINS_10unique_ptrI13ThreadContextNS_14default_deleteIS2_EEEEPS5_RS5_PS6_lLl512EEESB_, symObjAddr: 0xBA8, symBinAddr: 0x1000039D8, symSize: 0x30 }
  - { offset: 0x6839, size: 0x8, addend: 0x0, symName: __ZNSt3__134__libcpp_atomic_refcount_decrementB8ne180100IlEET_RS1_, symObjAddr: 0xF94, symBinAddr: 0x100003DC4, symSize: 0x30 }
  - { offset: 0x686E, size: 0x8, addend: 0x0, symName: __ZNSt3__119__libcpp_deallocateB8ne180100EPvmm, symObjAddr: 0x1238, symBinAddr: 0x100004068, symSize: 0x60 }
  - { offset: 0x68D3, size: 0x8, addend: 0x0, symName: __ZNSt3__124__is_overaligned_for_newB8ne180100Em, symObjAddr: 0x1298, symBinAddr: 0x1000040C8, symSize: 0x20 }
  - { offset: 0x6901, size: 0x8, addend: 0x0, symName: __ZNSt3__127__do_deallocate_handle_sizeB8ne180100IJSt11align_val_tEEEvPvmDpT_, symObjAddr: 0x12B8, symBinAddr: 0x1000040E8, symSize: 0x30 }
  - { offset: 0x6954, size: 0x8, addend: 0x0, symName: __ZNSt3__127__do_deallocate_handle_sizeB8ne180100IJEEEvPvmDpT_, symObjAddr: 0x12E8, symBinAddr: 0x100004118, symSize: 0x28 }
  - { offset: 0x6992, size: 0x8, addend: 0x0, symName: __ZNSt3__124__libcpp_operator_deleteB8ne180100IJPvSt11align_val_tEEEvDpT_, symObjAddr: 0x1310, symBinAddr: 0x100004140, symSize: 0x2C }
  - { offset: 0x69DB, size: 0x8, addend: 0x0, symName: __ZNSt3__124__libcpp_operator_deleteB8ne180100IJPvEEEvDpT_, symObjAddr: 0x133C, symBinAddr: 0x10000416C, symSize: 0x24 }
  - { offset: 0x6A10, size: 0x8, addend: 0x0, symName: __ZNSt3__112__to_addressB8ne180100IPNS_10unique_ptrI13ThreadContextNS_14default_deleteIS2_EEEEEEPT_S8_, symObjAddr: 0x15C0, symBinAddr: 0x1000043F0, symSize: 0x14 }
  - { offset: 0x6A45, size: 0x8, addend: 0x0, symName: __ZNSt3__116__pad_and_outputB8ne180100IcNS_11char_traitsIcEEEENS_19ostreambuf_iteratorIT_T0_EES6_PKS4_S8_S8_RNS_8ios_baseES4_, symObjAddr: 0x1928, symBinAddr: 0x100004758, symSize: 0x240 }
  - { offset: 0x6B14, size: 0x8, addend: 0x0, symName: __ZNSt3__112__to_addressB8ne180100IcEEPT_S2_, symObjAddr: 0x1E90, symBinAddr: 0x100004CC0, symSize: 0x14 }
  - { offset: 0x6B7C, size: 0x8, addend: 0x0, symName: __ZNSt3__19use_facetB8ne180100INS_5ctypeIcEEEERKT_RKNS_6localeE, symObjAddr: 0x2148, symBinAddr: 0x100004F78, symSize: 0x2C }
  - { offset: 0x7049, size: 0x8, addend: 0x0, symName: __ZNSt3__118__constexpr_strlenB8ne180100EPKc, symObjAddr: 0x21E0, symBinAddr: 0x100005010, symSize: 0x24 }
  - { offset: 0x854A, size: 0x8, addend: 0x0, symName: _cv1, symObjAddr: 0x2B108, symBinAddr: 0x1000240B0, symSize: 0x0 }
  - { offset: 0x8953, size: 0x8, addend: 0x0, symName: __ZN5mutexD1Ev, symObjAddr: 0x0, symBinAddr: 0x100002E30, symSize: 0x2C }
  - { offset: 0x897D, size: 0x8, addend: 0x0, symName: __ZN2cvD1Ev, symObjAddr: 0x2C, symBinAddr: 0x100002E5C, symSize: 0x2C }
  - { offset: 0x89A7, size: 0x8, addend: 0x0, symName: __Z5otherm, symObjAddr: 0x58, symBinAddr: 0x100002E88, symSize: 0x128 }
  - { offset: 0x89DD, size: 0x8, addend: 0x0, symName: __ZNSt3__113basic_ostreamIcNS_11char_traitsIcEEElsB8ne180100EPFRS3_S4_E, symObjAddr: 0x1C8, symBinAddr: 0x100002FF8, symSize: 0x2C }
  - { offset: 0x8A0F, size: 0x8, addend: 0x0, symName: __Z6parentm, symObjAddr: 0x24C, symBinAddr: 0x10000307C, symSize: 0x13C }
  - { offset: 0x8A45, size: 0x8, addend: 0x0, symName: _main, symObjAddr: 0x388, symBinAddr: 0x1000031B8, symSize: 0x40 }
  - { offset: 0x8A5E, size: 0x8, addend: 0x0, symName: __ZN5mutexD2Ev, symObjAddr: 0x3C8, symBinAddr: 0x1000031F8, symSize: 0x30 }
  - { offset: 0x8A89, size: 0x8, addend: 0x0, symName: __ZNSt3__15queueINS_10unique_ptrI13ThreadContextNS_14default_deleteIS2_EEEENS_5dequeIS5_NS_9allocatorIS5_EEEEED1Ev, symObjAddr: 0x3F8, symBinAddr: 0x100003228, symSize: 0x2C }
  - { offset: 0x8AB5, size: 0x8, addend: 0x0, symName: __ZNSt3__15queueINS_10unique_ptrI13ThreadContextNS_14default_deleteIS2_EEEENS_5dequeIS5_NS_9allocatorIS5_EEEEED2Ev, symObjAddr: 0x424, symBinAddr: 0x100003254, symSize: 0x2C }
  - { offset: 0x8AE1, size: 0x8, addend: 0x0, symName: __ZNSt3__15dequeINS_10unique_ptrI13ThreadContextNS_14default_deleteIS2_EEEENS_9allocatorIS5_EEED1B8ne180100Ev, symObjAddr: 0x450, symBinAddr: 0x100003280, symSize: 0x2C }
  - { offset: 0x8B0A, size: 0x8, addend: 0x0, symName: __ZNSt3__15dequeINS_10unique_ptrI13ThreadContextNS_14default_deleteIS2_EEEENS_9allocatorIS5_EEED2B8ne180100Ev, symObjAddr: 0x47C, symBinAddr: 0x1000032AC, symSize: 0xA4 }
  - { offset: 0x8B5F, size: 0x8, addend: 0x0, symName: __ZNSt3__15dequeINS_10unique_ptrI13ThreadContextNS_14default_deleteIS2_EEEENS_9allocatorIS5_EEE5clearEv, symObjAddr: 0x520, symBinAddr: 0x100003350, symSize: 0x194 }
  - { offset: 0x8BB9, size: 0x8, addend: 0x0, symName: __ZNKSt3__15dequeINS_10unique_ptrI13ThreadContextNS_14default_deleteIS2_EEEENS_9allocatorIS5_EEE17__annotate_deleteB8ne180100Ev, symObjAddr: 0x6B4, symBinAddr: 0x1000034E4, symSize: 0x10 }
  - { offset: 0x8BDE, size: 0x8, addend: 0x0, symName: __ZNSt3__114__split_bufferIPNS_10unique_ptrI13ThreadContextNS_14default_deleteIS2_EEEENS_9allocatorIS6_EEE5beginB8ne180100Ev, symObjAddr: 0x6C4, symBinAddr: 0x1000034F4, symSize: 0x18 }
  - { offset: 0x8C03, size: 0x8, addend: 0x0, symName: __ZNSt3__114__split_bufferIPNS_10unique_ptrI13ThreadContextNS_14default_deleteIS2_EEEENS_9allocatorIS6_EEE3endB8ne180100Ev, symObjAddr: 0x6DC, symBinAddr: 0x10000350C, symSize: 0x18 }
  - { offset: 0x8C28, size: 0x8, addend: 0x0, symName: __ZNSt3__116allocator_traitsINS_9allocatorINS_10unique_ptrI13ThreadContextNS_14default_deleteIS3_EEEEEEE10deallocateB8ne180100ERS7_PS6_m, symObjAddr: 0x6F4, symBinAddr: 0x100003524, symSize: 0x34 }
  - { offset: 0x8C69, size: 0x8, addend: 0x0, symName: __ZNSt3__15dequeINS_10unique_ptrI13ThreadContextNS_14default_deleteIS2_EEEENS_9allocatorIS5_EEE7__allocB8ne180100Ev, symObjAddr: 0x728, symBinAddr: 0x100003558, symSize: 0x28 }
  - { offset: 0x8C8E, size: 0x8, addend: 0x0, symName: __ZNSt3__114__split_bufferIPNS_10unique_ptrI13ThreadContextNS_14default_deleteIS2_EEEENS_9allocatorIS6_EEED1Ev, symObjAddr: 0x750, symBinAddr: 0x100003580, symSize: 0x2C }
  - { offset: 0x8CB8, size: 0x8, addend: 0x0, symName: __ZNSt3__15dequeINS_10unique_ptrI13ThreadContextNS_14default_deleteIS2_EEEENS_9allocatorIS5_EEE5beginB8ne180100Ev, symObjAddr: 0x77C, symBinAddr: 0x1000035AC, symSize: 0xB8 }
  - { offset: 0x8CEB, size: 0x8, addend: 0x0, symName: __ZNSt3__15dequeINS_10unique_ptrI13ThreadContextNS_14default_deleteIS2_EEEENS_9allocatorIS5_EEE3endB8ne180100Ev, symObjAddr: 0x834, symBinAddr: 0x100003664, symSize: 0xBC }
  - { offset: 0x8D2E, size: 0x8, addend: 0x0, symName: __ZNSt3__116allocator_traitsINS_9allocatorINS_10unique_ptrI13ThreadContextNS_14default_deleteIS3_EEEEEEE7destroyB8ne180100IS6_vEEvRS7_PT_, symObjAddr: 0x934, symBinAddr: 0x100003764, symSize: 0x2C }
  - { offset: 0x8D6B, size: 0x8, addend: 0x0, symName: __ZNKSt3__116__deque_iteratorINS_10unique_ptrI13ThreadContextNS_14default_deleteIS2_EEEEPS5_RS5_PS6_lLl512EEdeB8ne180100Ev, symObjAddr: 0x960, symBinAddr: 0x100003790, symSize: 0x18 }
  - { offset: 0x8D90, size: 0x8, addend: 0x0, symName: __ZNSt3__116__deque_iteratorINS_10unique_ptrI13ThreadContextNS_14default_deleteIS2_EEEEPS5_RS5_PS6_lLl512EEppB8ne180100Ev, symObjAddr: 0x978, symBinAddr: 0x1000037A8, symSize: 0x70 }
  - { offset: 0x8DB4, size: 0x8, addend: 0x0, symName: __ZNSt3__15dequeINS_10unique_ptrI13ThreadContextNS_14default_deleteIS2_EEEENS_9allocatorIS5_EEE6__sizeB8ne180100Ev, symObjAddr: 0x9E8, symBinAddr: 0x100003818, symSize: 0x28 }
  - { offset: 0x8DD9, size: 0x8, addend: 0x0, symName: __ZNKSt3__114__split_bufferIPNS_10unique_ptrI13ThreadContextNS_14default_deleteIS2_EEEENS_9allocatorIS6_EEE4sizeB8ne180100Ev, symObjAddr: 0xA10, symBinAddr: 0x100003840, symSize: 0x28 }
  - { offset: 0x8DFE, size: 0x8, addend: 0x0, symName: __ZNSt3__114__split_bufferIPNS_10unique_ptrI13ThreadContextNS_14default_deleteIS2_EEEENS_9allocatorIS6_EEE5frontB8ne180100Ev, symObjAddr: 0xA38, symBinAddr: 0x100003868, symSize: 0x18 }
  - { offset: 0x8E22, size: 0x8, addend: 0x0, symName: __ZNSt3__114__split_bufferIPNS_10unique_ptrI13ThreadContextNS_14default_deleteIS2_EEEENS_9allocatorIS6_EEE9pop_frontB8ne180100Ev, symObjAddr: 0xA50, symBinAddr: 0x100003880, symSize: 0x2C }
  - { offset: 0x8E47, size: 0x8, addend: 0x0, symName: __ZNKSt3__15dequeINS_10unique_ptrI13ThreadContextNS_14default_deleteIS2_EEEENS_9allocatorIS5_EEE14__annotate_newB8ne180100Em, symObjAddr: 0xA7C, symBinAddr: 0x1000038AC, symSize: 0x14 }
  - { offset: 0x8E7B, size: 0x8, addend: 0x0, symName: __ZNKSt3__114__split_bufferIPNS_10unique_ptrI13ThreadContextNS_14default_deleteIS2_EEEENS_9allocatorIS6_EEE5emptyB8ne180100Ev, symObjAddr: 0xA90, symBinAddr: 0x1000038C0, symSize: 0x28 }
  - { offset: 0x8EA0, size: 0x8, addend: 0x0, symName: __ZNSt3__116__deque_iteratorINS_10unique_ptrI13ThreadContextNS_14default_deleteIS2_EEEEPS5_RS5_PS6_lLl512EEC1B8ne180100ES8_S6_, symObjAddr: 0xAB8, symBinAddr: 0x1000038E8, symSize: 0x3C }
  - { offset: 0x8EE7, size: 0x8, addend: 0x0, symName: __ZNSt3__116__deque_iteratorINS_10unique_ptrI13ThreadContextNS_14default_deleteIS2_EEEEPS5_RS5_PS6_lLl512EEC2B8ne180100ES8_S6_, symObjAddr: 0xAF4, symBinAddr: 0x100003924, symSize: 0x2C }
  - { offset: 0x8F2D, size: 0x8, addend: 0x0, symName: __ZNKSt3__15dequeINS_10unique_ptrI13ThreadContextNS_14default_deleteIS2_EEEENS_9allocatorIS5_EEE4sizeB8ne180100Ev, symObjAddr: 0xB20, symBinAddr: 0x100003950, symSize: 0x28 }
  - { offset: 0x8F51, size: 0x8, addend: 0x0, symName: __ZNKSt3__15dequeINS_10unique_ptrI13ThreadContextNS_14default_deleteIS2_EEEENS_9allocatorIS5_EEE6__sizeB8ne180100Ev, symObjAddr: 0xB48, symBinAddr: 0x100003978, symSize: 0x28 }
  - { offset: 0x8F75, size: 0x8, addend: 0x0, symName: __ZNKSt3__117__compressed_pairImNS_9allocatorINS_10unique_ptrI13ThreadContextNS_14default_deleteIS3_EEEEEEE5firstB8ne180100Ev, symObjAddr: 0xB70, symBinAddr: 0x1000039A0, symSize: 0x24 }
  - { offset: 0x8F9A, size: 0x8, addend: 0x0, symName: __ZNKSt3__122__compressed_pair_elemImLi0ELb0EE5__getB8ne180100Ev, symObjAddr: 0xB94, symBinAddr: 0x1000039C4, symSize: 0x14 }
  - { offset: 0x8FBE, size: 0x8, addend: 0x0, symName: __ZNSt3__19allocatorINS_10unique_ptrI13ThreadContextNS_14default_deleteIS2_EEEEE7destroyB8ne180100EPS5_, symObjAddr: 0xBD8, symBinAddr: 0x100003A08, symSize: 0x28 }
  - { offset: 0x8FF1, size: 0x8, addend: 0x0, symName: __ZNSt3__110unique_ptrI13ThreadContextNS_14default_deleteIS1_EEED1B8ne180100Ev, symObjAddr: 0xC00, symBinAddr: 0x100003A30, symSize: 0x2C }
  - { offset: 0x901A, size: 0x8, addend: 0x0, symName: __ZNSt3__110unique_ptrI13ThreadContextNS_14default_deleteIS1_EEED2B8ne180100Ev, symObjAddr: 0xC2C, symBinAddr: 0x100003A5C, symSize: 0x30 }
  - { offset: 0x9042, size: 0x8, addend: 0x0, symName: __ZNSt3__110unique_ptrI13ThreadContextNS_14default_deleteIS1_EEE5resetB8ne180100EPS1_, symObjAddr: 0xC5C, symBinAddr: 0x100003A8C, symSize: 0x78 }
  - { offset: 0x9084, size: 0x8, addend: 0x0, symName: __ZNSt3__117__compressed_pairIP13ThreadContextNS_14default_deleteIS1_EEE5firstB8ne180100Ev, symObjAddr: 0xCD4, symBinAddr: 0x100003B04, symSize: 0x24 }
  - { offset: 0x90A8, size: 0x8, addend: 0x0, symName: __ZNSt3__117__compressed_pairIP13ThreadContextNS_14default_deleteIS1_EEE6secondB8ne180100Ev, symObjAddr: 0xCF8, symBinAddr: 0x100003B28, symSize: 0x24 }
  - { offset: 0x90CC, size: 0x8, addend: 0x0, symName: __ZNKSt3__114default_deleteI13ThreadContextEclB8ne180100EPS1_, symObjAddr: 0xD1C, symBinAddr: 0x100003B4C, symSize: 0x4C }
  - { offset: 0x90FF, size: 0x8, addend: 0x0, symName: __ZNSt3__122__compressed_pair_elemIP13ThreadContextLi0ELb0EE5__getB8ne180100Ev, symObjAddr: 0xD68, symBinAddr: 0x100003B98, symSize: 0x14 }
  - { offset: 0x9124, size: 0x8, addend: 0x0, symName: __ZNSt3__122__compressed_pair_elemINS_14default_deleteI13ThreadContextEELi1ELb1EE5__getB8ne180100Ev, symObjAddr: 0xD7C, symBinAddr: 0x100003BAC, symSize: 0x14 }
  - { offset: 0x9148, size: 0x8, addend: 0x0, symName: __ZN13ThreadContextD1Ev, symObjAddr: 0xD90, symBinAddr: 0x100003BC0, symSize: 0x2C }
  - { offset: 0x9172, size: 0x8, addend: 0x0, symName: __ZN13ThreadContextD2Ev, symObjAddr: 0xDBC, symBinAddr: 0x100003BEC, symSize: 0x48 }
  - { offset: 0x919D, size: 0x8, addend: 0x0, symName: __ZNSt3__110shared_ptrIbED1B8ne180100Ev, symObjAddr: 0xE04, symBinAddr: 0x100003C34, symSize: 0x2C }
  - { offset: 0x91C6, size: 0x8, addend: 0x0, symName: __ZNSt3__110shared_ptrINS_5queueINS_10unique_ptrI13ThreadContextNS_14default_deleteIS3_EEEENS_5dequeIS6_NS_9allocatorIS6_EEEEEEED1B8ne180100Ev, symObjAddr: 0xE30, symBinAddr: 0x100003C60, symSize: 0x2C }
  - { offset: 0x91EF, size: 0x8, addend: 0x0, symName: __ZNSt3__110unique_ptrI17__darwin_ucontextNS_14default_deleteIS1_EEED1B8ne180100Ev, symObjAddr: 0xE5C, symBinAddr: 0x100003C8C, symSize: 0x2C }
  - { offset: 0x9218, size: 0x8, addend: 0x0, symName: __ZNSt3__110shared_ptrIbED2B8ne180100Ev, symObjAddr: 0xE88, symBinAddr: 0x100003CB8, symSize: 0x54 }
  - { offset: 0x9240, size: 0x8, addend: 0x0, symName: __ZNSt3__119__shared_weak_count16__release_sharedB8ne180100Ev, symObjAddr: 0xEDC, symBinAddr: 0x100003D0C, symSize: 0x3C }
  - { offset: 0x9264, size: 0x8, addend: 0x0, symName: __ZNSt3__114__shared_count16__release_sharedB8ne180100Ev, symObjAddr: 0xF18, symBinAddr: 0x100003D48, symSize: 0x7C }
  - { offset: 0x9289, size: 0x8, addend: 0x0, symName: __ZNSt3__110shared_ptrINS_5queueINS_10unique_ptrI13ThreadContextNS_14default_deleteIS3_EEEENS_5dequeIS6_NS_9allocatorIS6_EEEEEEED2B8ne180100Ev, symObjAddr: 0xFC4, symBinAddr: 0x100003DF4, symSize: 0x54 }
  - { offset: 0x92B2, size: 0x8, addend: 0x0, symName: __ZNSt3__110unique_ptrI17__darwin_ucontextNS_14default_deleteIS1_EEED2B8ne180100Ev, symObjAddr: 0x1018, symBinAddr: 0x100003E48, symSize: 0x30 }
  - { offset: 0x92DA, size: 0x8, addend: 0x0, symName: __ZNSt3__110unique_ptrI17__darwin_ucontextNS_14default_deleteIS1_EEE5resetB8ne180100EPS1_, symObjAddr: 0x1048, symBinAddr: 0x100003E78, symSize: 0x78 }
  - { offset: 0x931C, size: 0x8, addend: 0x0, symName: __ZNSt3__117__compressed_pairIP17__darwin_ucontextNS_14default_deleteIS1_EEE5firstB8ne180100Ev, symObjAddr: 0x10C0, symBinAddr: 0x100003EF0, symSize: 0x24 }
  - { offset: 0x9340, size: 0x8, addend: 0x0, symName: __ZNSt3__117__compressed_pairIP17__darwin_ucontextNS_14default_deleteIS1_EEE6secondB8ne180100Ev, symObjAddr: 0x10E4, symBinAddr: 0x100003F14, symSize: 0x24 }
  - { offset: 0x9364, size: 0x8, addend: 0x0, symName: __ZNKSt3__114default_deleteI17__darwin_ucontextEclB8ne180100EPS1_, symObjAddr: 0x1108, symBinAddr: 0x100003F38, symSize: 0x44 }
  - { offset: 0x9397, size: 0x8, addend: 0x0, symName: __ZNSt3__122__compressed_pair_elemIP17__darwin_ucontextLi0ELb0EE5__getB8ne180100Ev, symObjAddr: 0x114C, symBinAddr: 0x100003F7C, symSize: 0x14 }
  - { offset: 0x93BC, size: 0x8, addend: 0x0, symName: __ZNSt3__122__compressed_pair_elemINS_14default_deleteI17__darwin_ucontextEELi1ELb1EE5__getB8ne180100Ev, symObjAddr: 0x1160, symBinAddr: 0x100003F90, symSize: 0x14 }
  - { offset: 0x93E0, size: 0x8, addend: 0x0, symName: __ZNSt3__117__compressed_pairImNS_9allocatorINS_10unique_ptrI13ThreadContextNS_14default_deleteIS3_EEEEEEE5firstB8ne180100Ev, symObjAddr: 0x1174, symBinAddr: 0x100003FA4, symSize: 0x24 }
  - { offset: 0x9405, size: 0x8, addend: 0x0, symName: __ZNSt3__122__compressed_pair_elemImLi0ELb0EE5__getB8ne180100Ev, symObjAddr: 0x1198, symBinAddr: 0x100003FC8, symSize: 0x14 }
  - { offset: 0x9429, size: 0x8, addend: 0x0, symName: __ZNSt3__114__split_bufferIPNS_10unique_ptrI13ThreadContextNS_14default_deleteIS2_EEEENS_9allocatorIS6_EEE19__destruct_at_beginB8ne180100EPS6_, symObjAddr: 0x11AC, symBinAddr: 0x100003FDC, symSize: 0x2C }
  - { offset: 0x945C, size: 0x8, addend: 0x0, symName: __ZNSt3__114__split_bufferIPNS_10unique_ptrI13ThreadContextNS_14default_deleteIS2_EEEENS_9allocatorIS6_EEE19__destruct_at_beginEPS6_NS_17integral_constantIbLb1EEE, symObjAddr: 0x11D8, symBinAddr: 0x100004008, symSize: 0x20 }
  - { offset: 0x949B, size: 0x8, addend: 0x0, symName: __ZNSt3__19allocatorINS_10unique_ptrI13ThreadContextNS_14default_deleteIS2_EEEEE10deallocateB8ne180100EPS5_m, symObjAddr: 0x11F8, symBinAddr: 0x100004028, symSize: 0x40 }
  - { offset: 0x94DB, size: 0x8, addend: 0x0, symName: __ZNSt3__117__compressed_pairImNS_9allocatorINS_10unique_ptrI13ThreadContextNS_14default_deleteIS3_EEEEEEE6secondB8ne180100Ev, symObjAddr: 0x1360, symBinAddr: 0x100004190, symSize: 0x24 }
  - { offset: 0x9500, size: 0x8, addend: 0x0, symName: __ZNSt3__122__compressed_pair_elemINS_9allocatorINS_10unique_ptrI13ThreadContextNS_14default_deleteIS3_EEEEEELi1ELb1EE5__getB8ne180100Ev, symObjAddr: 0x1384, symBinAddr: 0x1000041B4, symSize: 0x14 }
  - { offset: 0x9525, size: 0x8, addend: 0x0, symName: __ZNSt3__114__split_bufferIPNS_10unique_ptrI13ThreadContextNS_14default_deleteIS2_EEEENS_9allocatorIS6_EEED2Ev, symObjAddr: 0x1398, symBinAddr: 0x1000041C8, symSize: 0x8C }
  - { offset: 0x954F, size: 0x8, addend: 0x0, symName: __ZNSt3__114__split_bufferIPNS_10unique_ptrI13ThreadContextNS_14default_deleteIS2_EEEENS_9allocatorIS6_EEE5clearB8ne180100Ev, symObjAddr: 0x1424, symBinAddr: 0x100004254, symSize: 0x28 }
  - { offset: 0x9574, size: 0x8, addend: 0x0, symName: __ZNSt3__116allocator_traitsINS_9allocatorIPNS_10unique_ptrI13ThreadContextNS_14default_deleteIS3_EEEEEEE10deallocateB8ne180100ERS8_PS7_m, symObjAddr: 0x144C, symBinAddr: 0x10000427C, symSize: 0x34 }
  - { offset: 0x95B5, size: 0x8, addend: 0x0, symName: __ZNSt3__114__split_bufferIPNS_10unique_ptrI13ThreadContextNS_14default_deleteIS2_EEEENS_9allocatorIS6_EEE7__allocB8ne180100Ev, symObjAddr: 0x1480, symBinAddr: 0x1000042B0, symSize: 0x28 }
  - { offset: 0x95D9, size: 0x8, addend: 0x0, symName: __ZNKSt3__114__split_bufferIPNS_10unique_ptrI13ThreadContextNS_14default_deleteIS2_EEEENS_9allocatorIS6_EEE8capacityB8ne180100Ev, symObjAddr: 0x14A8, symBinAddr: 0x1000042D8, symSize: 0x40 }
  - { offset: 0x95FD, size: 0x8, addend: 0x0, symName: __ZNSt3__114__split_bufferIPNS_10unique_ptrI13ThreadContextNS_14default_deleteIS2_EEEENS_9allocatorIS6_EEE17__destruct_at_endB8ne180100EPS6_, symObjAddr: 0x14E8, symBinAddr: 0x100004318, symSize: 0x2C }
  - { offset: 0x9630, size: 0x8, addend: 0x0, symName: __ZNSt3__114__split_bufferIPNS_10unique_ptrI13ThreadContextNS_14default_deleteIS2_EEEENS_9allocatorIS6_EEE17__destruct_at_endB8ne180100EPS6_NS_17integral_constantIbLb0EEE, symObjAddr: 0x1514, symBinAddr: 0x100004344, symSize: 0x80 }
  - { offset: 0x9670, size: 0x8, addend: 0x0, symName: __ZNSt3__116allocator_traitsINS_9allocatorIPNS_10unique_ptrI13ThreadContextNS_14default_deleteIS3_EEEEEEE7destroyB8ne180100IS7_vEEvRS8_PT_, symObjAddr: 0x1594, symBinAddr: 0x1000043C4, symSize: 0x2C }
  - { offset: 0x96AD, size: 0x8, addend: 0x0, symName: __ZNSt3__19allocatorIPNS_10unique_ptrI13ThreadContextNS_14default_deleteIS2_EEEEE7destroyB8ne180100EPS6_, symObjAddr: 0x15D4, symBinAddr: 0x100004404, symSize: 0x14 }
  - { offset: 0x96DF, size: 0x8, addend: 0x0, symName: __ZNSt3__19allocatorIPNS_10unique_ptrI13ThreadContextNS_14default_deleteIS2_EEEEE10deallocateB8ne180100EPS6_m, symObjAddr: 0x15E8, symBinAddr: 0x100004418, symSize: 0x40 }
  - { offset: 0x971F, size: 0x8, addend: 0x0, symName: __ZNSt3__117__compressed_pairIPPNS_10unique_ptrI13ThreadContextNS_14default_deleteIS2_EEEENS_9allocatorIS6_EEE6secondB8ne180100Ev, symObjAddr: 0x1628, symBinAddr: 0x100004458, symSize: 0x24 }
  - { offset: 0x9744, size: 0x8, addend: 0x0, symName: __ZNSt3__122__compressed_pair_elemINS_9allocatorIPNS_10unique_ptrI13ThreadContextNS_14default_deleteIS3_EEEEEELi1ELb1EE5__getB8ne180100Ev, symObjAddr: 0x164C, symBinAddr: 0x10000447C, symSize: 0x14 }
  - { offset: 0x9768, size: 0x8, addend: 0x0, symName: __ZNKSt3__114__split_bufferIPNS_10unique_ptrI13ThreadContextNS_14default_deleteIS2_EEEENS_9allocatorIS6_EEE9__end_capB8ne180100Ev, symObjAddr: 0x1660, symBinAddr: 0x100004490, symSize: 0x28 }
  - { offset: 0x978C, size: 0x8, addend: 0x0, symName: __ZNKSt3__117__compressed_pairIPPNS_10unique_ptrI13ThreadContextNS_14default_deleteIS2_EEEENS_9allocatorIS6_EEE5firstB8ne180100Ev, symObjAddr: 0x1688, symBinAddr: 0x1000044B8, symSize: 0x24 }
  - { offset: 0x97B1, size: 0x8, addend: 0x0, symName: __ZNKSt3__122__compressed_pair_elemIPPNS_10unique_ptrI13ThreadContextNS_14default_deleteIS2_EEEELi0ELb0EE5__getB8ne180100Ev, symObjAddr: 0x16AC, symBinAddr: 0x1000044DC, symSize: 0x14 }
  - { offset: 0x97D5, size: 0x8, addend: 0x0, symName: __ZN2cvD2Ev, symObjAddr: 0x16C0, symBinAddr: 0x1000044F0, symSize: 0x2C }
  - { offset: 0x9800, size: 0x8, addend: 0x0, symName: __ZNSt3__111char_traitsIcE6lengthB8ne180100EPKc, symObjAddr: 0x18D8, symBinAddr: 0x100004708, symSize: 0x34 }
  - { offset: 0x9841, size: 0x8, addend: 0x0, symName: __ZNKSt3__113basic_ostreamIcNS_11char_traitsIcEEE6sentrycvbB8ne180100Ev, symObjAddr: 0x190C, symBinAddr: 0x10000473C, symSize: 0x1C }
  - { offset: 0x9866, size: 0x8, addend: 0x0, symName: __ZNSt3__119ostreambuf_iteratorIcNS_11char_traitsIcEEEC1B8ne180100ERNS_13basic_ostreamIcS2_EE, symObjAddr: 0x1B68, symBinAddr: 0x100004998, symSize: 0x34 }
  - { offset: 0x989D, size: 0x8, addend: 0x0, symName: __ZNKSt3__18ios_base5flagsB8ne180100Ev, symObjAddr: 0x1B9C, symBinAddr: 0x1000049CC, symSize: 0x18 }
  - { offset: 0x98C4, size: 0x8, addend: 0x0, symName: __ZNKSt3__19basic_iosIcNS_11char_traitsIcEEE4fillB8ne180100Ev, symObjAddr: 0x1BB4, symBinAddr: 0x1000049E4, symSize: 0x64 }
  - { offset: 0x98EB, size: 0x8, addend: 0x0, symName: __ZNKSt3__119ostreambuf_iteratorIcNS_11char_traitsIcEEE6failedB8ne180100Ev, symObjAddr: 0x1C18, symBinAddr: 0x100004A48, symSize: 0x24 }
  - { offset: 0x990F, size: 0x8, addend: 0x0, symName: __ZNSt3__19basic_iosIcNS_11char_traitsIcEEE8setstateB8ne180100Ej, symObjAddr: 0x1C3C, symBinAddr: 0x100004A6C, symSize: 0x2C }
  - { offset: 0x9943, size: 0x8, addend: 0x0, symName: __ZNKSt3__18ios_base5widthB8ne180100Ev, symObjAddr: 0x1C68, symBinAddr: 0x100004A98, symSize: 0x18 }
  - { offset: 0x9969, size: 0x8, addend: 0x0, symName: __ZNSt3__115basic_streambufIcNS_11char_traitsIcEEE5sputnB8ne180100EPKcl, symObjAddr: 0x1C80, symBinAddr: 0x100004AB0, symSize: 0x3C }
  - { offset: 0x99AA, size: 0x8, addend: 0x0, symName: __ZNSt3__112basic_stringIcNS_11char_traitsIcEENS_9allocatorIcEEEC1B8ne180100Emc, symObjAddr: 0x1CBC, symBinAddr: 0x100004AEC, symSize: 0x3C }
  - { offset: 0x99F0, size: 0x8, addend: 0x0, symName: __ZNSt3__112basic_stringIcNS_11char_traitsIcEENS_9allocatorIcEEE4dataB8ne180100Ev, symObjAddr: 0x1CF8, symBinAddr: 0x100004B28, symSize: 0x28 }
  - { offset: 0x9A15, size: 0x8, addend: 0x0, symName: __ZNSt3__18ios_base5widthB8ne180100El, symObjAddr: 0x1D20, symBinAddr: 0x100004B50, symSize: 0x2C }
  - { offset: 0x9A5A, size: 0x8, addend: 0x0, symName: __ZNSt3__112basic_stringIcNS_11char_traitsIcEENS_9allocatorIcEEEC2B8ne180100Emc, symObjAddr: 0x1D4C, symBinAddr: 0x100004B7C, symSize: 0x4C }
  - { offset: 0x9AA6, size: 0x8, addend: 0x0, symName: __ZNSt3__117__compressed_pairINS_12basic_stringIcNS_11char_traitsIcEENS_9allocatorIcEEE5__repES5_EC1B8ne180100INS_18__default_init_tagESA_EEOT_OT0_, symObjAddr: 0x1D98, symBinAddr: 0x100004BC8, symSize: 0x3C }
  - { offset: 0x9AFD, size: 0x8, addend: 0x0, symName: __ZNSt3__117__compressed_pairINS_12basic_stringIcNS_11char_traitsIcEENS_9allocatorIcEEE5__repES5_EC2B8ne180100INS_18__default_init_tagESA_EEOT_OT0_, symObjAddr: 0x1DD4, symBinAddr: 0x100004C04, symSize: 0x3C }
  - { offset: 0x9B54, size: 0x8, addend: 0x0, symName: __ZNSt3__122__compressed_pair_elemINS_12basic_stringIcNS_11char_traitsIcEENS_9allocatorIcEEE5__repELi0ELb0EEC2B8ne180100ENS_18__default_init_tagE, symObjAddr: 0x1E10, symBinAddr: 0x100004C40, symSize: 0x14 }
  - { offset: 0x9B88, size: 0x8, addend: 0x0, symName: __ZNSt3__122__compressed_pair_elemINS_9allocatorIcEELi1ELb1EEC2B8ne180100ENS_18__default_init_tagE, symObjAddr: 0x1E24, symBinAddr: 0x100004C54, symSize: 0x2C }
  - { offset: 0x9BBC, size: 0x8, addend: 0x0, symName: __ZNSt3__19allocatorIcEC2B8ne180100Ev, symObjAddr: 0x1E50, symBinAddr: 0x100004C80, symSize: 0x2C }
  - { offset: 0x9BE5, size: 0x8, addend: 0x0, symName: __ZNSt3__116__non_trivial_ifILb1ENS_9allocatorIcEEEC2B8ne180100Ev, symObjAddr: 0x1E7C, symBinAddr: 0x100004CAC, symSize: 0x14 }
  - { offset: 0x9C0D, size: 0x8, addend: 0x0, symName: __ZNSt3__112basic_stringIcNS_11char_traitsIcEENS_9allocatorIcEEE13__get_pointerB8ne180100Ev, symObjAddr: 0x1EA4, symBinAddr: 0x100004CD4, symSize: 0x54 }
  - { offset: 0x9C31, size: 0x8, addend: 0x0, symName: __ZNKSt3__112basic_stringIcNS_11char_traitsIcEENS_9allocatorIcEEE9__is_longB8ne180100Ev, symObjAddr: 0x1EF8, symBinAddr: 0x100004D28, symSize: 0x38 }
  - { offset: 0x9C55, size: 0x8, addend: 0x0, symName: __ZNSt3__112basic_stringIcNS_11char_traitsIcEENS_9allocatorIcEEE18__get_long_pointerB8ne180100Ev, symObjAddr: 0x1F30, symBinAddr: 0x100004D60, symSize: 0x28 }
  - { offset: 0x9C79, size: 0x8, addend: 0x0, symName: __ZNSt3__112basic_stringIcNS_11char_traitsIcEENS_9allocatorIcEEE19__get_short_pointerB8ne180100Ev, symObjAddr: 0x1F58, symBinAddr: 0x100004D88, symSize: 0x28 }
  - { offset: 0x9C9D, size: 0x8, addend: 0x0, symName: __ZNKSt3__117__compressed_pairINS_12basic_stringIcNS_11char_traitsIcEENS_9allocatorIcEEE5__repES5_E5firstB8ne180100Ev, symObjAddr: 0x1F80, symBinAddr: 0x100004DB0, symSize: 0x24 }
  - { offset: 0x9CC2, size: 0x8, addend: 0x0, symName: __ZNKSt3__122__compressed_pair_elemINS_12basic_stringIcNS_11char_traitsIcEENS_9allocatorIcEEE5__repELi0ELb0EE5__getB8ne180100Ev, symObjAddr: 0x1FA4, symBinAddr: 0x100004DD4, symSize: 0x14 }
  - { offset: 0x9CE6, size: 0x8, addend: 0x0, symName: __ZNSt3__117__compressed_pairINS_12basic_stringIcNS_11char_traitsIcEENS_9allocatorIcEEE5__repES5_E5firstB8ne180100Ev, symObjAddr: 0x1FB8, symBinAddr: 0x100004DE8, symSize: 0x24 }
  - { offset: 0x9D0B, size: 0x8, addend: 0x0, symName: __ZNSt3__122__compressed_pair_elemINS_12basic_stringIcNS_11char_traitsIcEENS_9allocatorIcEEE5__repELi0ELb0EE5__getB8ne180100Ev, symObjAddr: 0x1FDC, symBinAddr: 0x100004E0C, symSize: 0x14 }
  - { offset: 0x9D30, size: 0x8, addend: 0x0, symName: __ZNSt3__114pointer_traitsIPcE10pointer_toB8ne180100ERc, symObjAddr: 0x1FF0, symBinAddr: 0x100004E20, symSize: 0x14 }
  - { offset: 0x9D53, size: 0x8, addend: 0x0, symName: __ZNSt3__119ostreambuf_iteratorIcNS_11char_traitsIcEEEC2B8ne180100ERNS_13basic_ostreamIcS2_EE, symObjAddr: 0x2004, symBinAddr: 0x100004E34, symSize: 0x54 }
  - { offset: 0x9D8A, size: 0x8, addend: 0x0, symName: __ZNKSt3__19basic_iosIcNS_11char_traitsIcEEE5rdbufB8ne180100Ev, symObjAddr: 0x2058, symBinAddr: 0x100004E88, symSize: 0x24 }
  - { offset: 0x9DB1, size: 0x8, addend: 0x0, symName: __ZNKSt3__18ios_base5rdbufB8ne180100Ev, symObjAddr: 0x207C, symBinAddr: 0x100004EAC, symSize: 0x18 }
  - { offset: 0x9DD6, size: 0x8, addend: 0x0, symName: __ZNSt3__111char_traitsIcE11eq_int_typeB8ne180100Eii, symObjAddr: 0x2094, symBinAddr: 0x100004EC4, symSize: 0x28 }
  - { offset: 0x9E09, size: 0x8, addend: 0x0, symName: __ZNSt3__111char_traitsIcE3eofB8ne180100Ev, symObjAddr: 0x20BC, symBinAddr: 0x100004EEC, symSize: 0x8 }
  - { offset: 0x9E1D, size: 0x8, addend: 0x0, symName: __ZNKSt3__19basic_iosIcNS_11char_traitsIcEEE5widenB8ne180100Ec, symObjAddr: 0x20C4, symBinAddr: 0x100004EF4, symSize: 0x84 }
  - { offset: 0x9E89, size: 0x8, addend: 0x0, symName: __ZNKSt3__15ctypeIcE5widenB8ne180100Ec, symObjAddr: 0x2174, symBinAddr: 0x100004FA4, symSize: 0x38 }
  - { offset: 0x9EBD, size: 0x8, addend: 0x0, symName: __ZNSt3__18ios_base8setstateB8ne180100Ej, symObjAddr: 0x21AC, symBinAddr: 0x100004FDC, symSize: 0x34 }
  - { offset: 0x1389C, size: 0x8, addend: 0x0, symName: __ZNSt3__111make_uniqueB8ne180100I17__darwin_ucontextJEEENS_11__unique_ifIT_E15__unique_singleEDpOT0_, symObjAddr: 0x168, symBinAddr: 0x100005234, symSize: 0x44 }
  - { offset: 0x138C9, size: 0x8, addend: 0x0, symName: __ZNSt3__111make_uniqueB8ne180100I13ThreadContextJNS_10unique_ptrI17__darwin_ucontextNS_14default_deleteIS3_EEEEEEENS_11__unique_ifIT_E15__unique_singleEDpOT0_, symObjAddr: 0x28C, symBinAddr: 0x100005358, symSize: 0xBC }
  - { offset: 0x1390B, size: 0x8, addend: 0x0, symName: __ZNSt3__112__to_addressB8ne180100IPcEEPT_S3_, symObjAddr: 0xECC, symBinAddr: 0x100005F98, symSize: 0x14 }
  - { offset: 0x13940, size: 0x8, addend: 0x0, symName: __ZNSt3__13maxB8ne180100ImEERKT_S3_S3_, symObjAddr: 0x12E8, symBinAddr: 0x1000063B4, symSize: 0x2C }
  - { offset: 0x13983, size: 0x8, addend: 0x0, symName: __ZNSt3__13minB8ne180100ImEERKT_S3_S3_, symObjAddr: 0x1314, symBinAddr: 0x1000063E0, symSize: 0x2C }
  - { offset: 0x13BB0, size: 0x8, addend: 0x0, symName: __ZNSt3__13minB8ne180100ImNS_6__lessIvvEEEERKT_S5_S5_T0_, symObjAddr: 0x13A0, symBinAddr: 0x10000646C, symSize: 0x54 }
  - { offset: 0x13C52, size: 0x8, addend: 0x0, symName: __ZNSt3__120__throw_length_errorB8ne180100EPKc, symObjAddr: 0x147C, symBinAddr: 0x100006548, symSize: 0x64 }
  - { offset: 0x13C7A, size: 0x8, addend: 0x0, symName: __ZNSt3__13maxB8ne180100ImNS_6__lessIvvEEEERKT_S5_S5_T0_, symObjAddr: 0x15B8, symBinAddr: 0x100006684, symSize: 0x54 }
  - { offset: 0x13CD4, size: 0x8, addend: 0x0, symName: __ZNSt3__119__allocate_at_leastB8ne180100INS_9allocatorIPcEEEENS_19__allocation_resultINS_16allocator_traitsIT_E7pointerEEERS6_m, symObjAddr: 0x171C, symBinAddr: 0x1000067E8, symSize: 0x40 }
  - { offset: 0x13D17, size: 0x8, addend: 0x0, symName: __ZNSt3__117__libcpp_allocateB8ne180100Emm, symObjAddr: 0x18BC, symBinAddr: 0x100006988, symSize: 0x60 }
  - { offset: 0x13D71, size: 0x8, addend: 0x0, symName: __ZNSt3__124__is_overaligned_for_newB8ne180100Em, symObjAddr: 0x191C, symBinAddr: 0x1000069E8, symSize: 0x20 }
  - { offset: 0x13D9F, size: 0x8, addend: 0x0, symName: __ZNSt3__121__libcpp_operator_newB8ne180100IJmSt11align_val_tEEEPvDpT_, symObjAddr: 0x193C, symBinAddr: 0x100006A08, symSize: 0x2C }
  - { offset: 0x13DEC, size: 0x8, addend: 0x0, symName: __ZNSt3__121__libcpp_operator_newB8ne180100IJmEEEPvDpT_, symObjAddr: 0x1968, symBinAddr: 0x100006A34, symSize: 0x24 }
  - { offset: 0x13E25, size: 0x8, addend: 0x0, symName: __ZNSt3__142__uninitialized_allocator_move_if_noexceptB8ne180100INS_9allocatorIPcEENS_16reverse_iteratorIPS2_EES6_S2_vEET1_RT_T0_SA_S7_, symObjAddr: 0x1A00, symBinAddr: 0x100006ACC, symSize: 0x78 }
  - { offset: 0x13EA3, size: 0x8, addend: 0x0, symName: __ZNSt3__14swapB8ne180100IPPcEENS_9enable_ifIXaasr21is_move_constructibleIT_EE5valuesr18is_move_assignableIS4_EE5valueEvE4typeERS4_S7_, symObjAddr: 0x1AC4, symBinAddr: 0x100006B90, symSize: 0x3C }
  - { offset: 0x13EF4, size: 0x8, addend: 0x0, symName: __ZNSt3__14moveB8ne180100INS_16reverse_iteratorIPPcEES4_EET0_T_S6_S5_, symObjAddr: 0x1B14, symBinAddr: 0x100006BE0, symSize: 0x78 }
  - { offset: 0x13F4E, size: 0x8, addend: 0x0, symName: __ZNSt3__16__moveB8ne180100INS_17_ClassicAlgPolicyENS_16reverse_iteratorIPPcEES5_S5_EENS_4pairIT0_T2_EES7_T1_S8_, symObjAddr: 0x1B8C, symBinAddr: 0x100006C58, symSize: 0x64 }
  - { offset: 0x13FBA, size: 0x8, addend: 0x0, symName: __ZNSt3__123__dispatch_copy_or_moveB8ne180100INS_17_ClassicAlgPolicyENS_11__move_loopIS1_EENS_14__move_trivialENS_16reverse_iteratorIPPcEES8_S8_EENS_4pairIT2_T4_EESA_T3_SB_, symObjAddr: 0x1BF0, symBinAddr: 0x100006CBC, symSize: 0x64 }
  - { offset: 0x14038, size: 0x8, addend: 0x0, symName: __ZNSt3__121__unwrap_and_dispatchB8ne180100INS_10__overloadINS_11__move_loopINS_17_ClassicAlgPolicyEEENS_14__move_trivialEEENS_16reverse_iteratorIPPcEESA_SA_Li0EEENS_4pairIT0_T2_EESC_T1_SD_, symObjAddr: 0x1C54, symBinAddr: 0x100006D20, symSize: 0x12C }
  - { offset: 0x140C9, size: 0x8, addend: 0x0, symName: __ZNSt3__114__unwrap_rangeB8ne180100INS_16reverse_iteratorIPPcEES4_EENS_4pairIT0_S6_EET_S8_, symObjAddr: 0x1D80, symBinAddr: 0x100006E4C, symSize: 0x84 }
  - { offset: 0x14245, size: 0x8, addend: 0x0, symName: __ZNSt3__113__unwrap_iterB8ne180100INS_16reverse_iteratorIPPcEENS_18__unwrap_iter_implIS4_Lb0EEELi0EEEDTclsrT0_8__unwrapclsr3stdE7declvalIT_EEEES8_, symObjAddr: 0x1EA4, symBinAddr: 0x100006F70, symSize: 0x44 }
  - { offset: 0x1428A, size: 0x8, addend: 0x0, symName: __ZNSt3__19make_pairB8ne180100INS_16reverse_iteratorIPPcEES4_EENS_4pairINS_18__unwrap_ref_decayIT_E4typeENS6_IT0_E4typeEEEOS7_OSA_, symObjAddr: 0x1EE8, symBinAddr: 0x100006FB4, symSize: 0x38 }
  - { offset: 0x142D9, size: 0x8, addend: 0x0, symName: __ZNSt3__114__rewrap_rangeB8ne180100INS_16reverse_iteratorIPPcEES4_EET_S5_T0_, symObjAddr: 0x1F20, symBinAddr: 0x100006FEC, symSize: 0x5C }
  - { offset: 0x14325, size: 0x8, addend: 0x0, symName: __ZNSt3__113__rewrap_iterB8ne180100INS_16reverse_iteratorIPPcEES4_NS_18__unwrap_iter_implIS4_Lb0EEEEET_S7_T0_, symObjAddr: 0x1F7C, symBinAddr: 0x100007048, symSize: 0x74 }
  - { offset: 0x1437A, size: 0x8, addend: 0x0, symName: __ZNSt3__1neB8ne180100IPPcS2_EEbRKNS_16reverse_iteratorIT_EERKNS3_IT0_EE, symObjAddr: 0x1FF0, symBinAddr: 0x1000070BC, symSize: 0x48 }
  - { offset: 0x14472, size: 0x8, addend: 0x0, symName: __ZNSt3__119__libcpp_deallocateB8ne180100EPvmm, symObjAddr: 0x23E8, symBinAddr: 0x1000074B4, symSize: 0x60 }
  - { offset: 0x144D7, size: 0x8, addend: 0x0, symName: __ZNSt3__127__do_deallocate_handle_sizeB8ne180100IJSt11align_val_tEEEvPvmDpT_, symObjAddr: 0x2448, symBinAddr: 0x100007514, symSize: 0x30 }
  - { offset: 0x1452A, size: 0x8, addend: 0x0, symName: __ZNSt3__127__do_deallocate_handle_sizeB8ne180100IJEEEvPvmDpT_, symObjAddr: 0x2478, symBinAddr: 0x100007544, symSize: 0x28 }
  - { offset: 0x14568, size: 0x8, addend: 0x0, symName: __ZNSt3__124__libcpp_operator_deleteB8ne180100IJPvSt11align_val_tEEEvDpT_, symObjAddr: 0x24A0, symBinAddr: 0x10000756C, symSize: 0x2C }
  - { offset: 0x145B1, size: 0x8, addend: 0x0, symName: __ZNSt3__124__libcpp_operator_deleteB8ne180100IJPvEEEvDpT_, symObjAddr: 0x24CC, symBinAddr: 0x100007598, symSize: 0x24 }
  - { offset: 0x145E6, size: 0x8, addend: 0x0, symName: __ZNSt3__111make_sharedB8ne180100IbJbEvEENS_10shared_ptrIT_EEDpOT0_, symObjAddr: 0x28BC, symBinAddr: 0x100007988, symSize: 0x40 }
  - { offset: 0x14629, size: 0x8, addend: 0x0, symName: __ZNSt3__111make_sharedB8ne180100INS_5queueINS_10unique_ptrI13ThreadContextNS_14default_deleteIS3_EEEENS_5dequeIS6_NS_9allocatorIS6_EEEEEEJEvEENS_10shared_ptrIT_EEDpOT0_, symObjAddr: 0x2978, symBinAddr: 0x100007A44, symSize: 0x38 }
  - { offset: 0x14657, size: 0x8, addend: 0x0, symName: __ZNSt3__115allocate_sharedB8ne180100IbNS_9allocatorIbEEJbEvEENS_10shared_ptrIT_EERKT0_DpOT1_, symObjAddr: 0x2A64, symBinAddr: 0x100007B30, symSize: 0x98 }
  - { offset: 0x14ABF, size: 0x8, addend: 0x0, symName: __ZNSt3__14swapB8ne180100IPbEENS_9enable_ifIXaasr21is_move_constructibleIT_EE5valuesr18is_move_assignableIS3_EE5valueEvE4typeERS3_S6_, symObjAddr: 0x3514, symBinAddr: 0x1000085E0, symSize: 0x3C }
  - { offset: 0x14B10, size: 0x8, addend: 0x0, symName: __ZNSt3__14swapB8ne180100IPNS_19__shared_weak_countEEENS_9enable_ifIXaasr21is_move_constructibleIT_EE5valuesr18is_move_assignableIS4_EE5valueEvE4typeERS4_S7_, symObjAddr: 0x3550, symBinAddr: 0x10000861C, symSize: 0x3C }
  - { offset: 0x14B61, size: 0x8, addend: 0x0, symName: __ZNSt3__134__libcpp_atomic_refcount_decrementB8ne180100IlEET_RS1_, symObjAddr: 0x3698, symBinAddr: 0x100008764, symSize: 0x30 }
  - { offset: 0x14B96, size: 0x8, addend: 0x0, symName: __ZNSt3__115allocate_sharedB8ne180100INS_5queueINS_10unique_ptrI13ThreadContextNS_14default_deleteIS3_EEEENS_5dequeIS6_NS_9allocatorIS6_EEEEEENS8_ISB_EEJEvEENS_10shared_ptrIT_EERKT0_DpOT1_, symObjAddr: 0x36C8, symBinAddr: 0x100008794, symSize: 0x90 }
  - { offset: 0x14FAB, size: 0x8, addend: 0x0, symName: __ZNSt3__1neB8ne180100ERKNS_16__deque_iteratorINS_10unique_ptrI13ThreadContextNS_14default_deleteIS2_EEEEPS5_RS5_PS6_lLl512EEESB_, symObjAddr: 0x471C, symBinAddr: 0x100009790, symSize: 0x34 }
  - { offset: 0x14FE8, size: 0x8, addend: 0x0, symName: __ZNSt3__1eqB8ne180100ERKNS_16__deque_iteratorINS_10unique_ptrI13ThreadContextNS_14default_deleteIS2_EEEEPS5_RS5_PS6_lLl512EEESB_, symObjAddr: 0x49B0, symBinAddr: 0x1000099F8, symSize: 0x30 }
  - { offset: 0x15025, size: 0x8, addend: 0x0, symName: __ZNSt3__112__to_addressB8ne180100IPNS_10unique_ptrI13ThreadContextNS_14default_deleteIS2_EEEEEEPT_S8_, symObjAddr: 0x4D2C, symBinAddr: 0x100009D48, symSize: 0x14 }
  - { offset: 0x1508D, size: 0x8, addend: 0x0, symName: __ZNSt3__14swapB8ne180100IPNS_5queueINS_10unique_ptrI13ThreadContextNS_14default_deleteIS3_EEEENS_5dequeIS6_NS_9allocatorIS6_EEEEEEEENS_9enable_ifIXaasr21is_move_constructibleIT_EE5valuesr18is_move_assignableISE_EE5valueEvE4typeERSE_SH_, symObjAddr: 0x5088, symBinAddr: 0x10000A0A4, symSize: 0x3C }
  - { offset: 0x1552F, size: 0x8, addend: 0x0, symName: __ZNSt3__14swapB8ne180100IPPNS_10unique_ptrI13ThreadContextNS_14default_deleteIS2_EEEEEENS_9enable_ifIXaasr21is_move_constructibleIT_EE5valuesr18is_move_assignableIS9_EE5valueEvE4typeERS9_SC_, symObjAddr: 0x6678, symBinAddr: 0x10000B620, symSize: 0x3C }
  - { offset: 0x15580, size: 0x8, addend: 0x0, symName: __ZNSt3__14moveB8ne180100IPPNS_10unique_ptrI13ThreadContextNS_14default_deleteIS2_EEEES7_EET0_T_S9_S8_, symObjAddr: 0x675C, symBinAddr: 0x10000B704, symSize: 0x40 }
  - { offset: 0x155DA, size: 0x8, addend: 0x0, symName: __ZNSt3__16__moveB8ne180100INS_17_ClassicAlgPolicyEPPNS_10unique_ptrI13ThreadContextNS_14default_deleteIS3_EEEES8_S8_EENS_4pairIT0_T2_EESA_T1_SB_, symObjAddr: 0x6864, symBinAddr: 0x10000B80C, symSize: 0x44 }
  - { offset: 0x15646, size: 0x8, addend: 0x0, symName: __ZNSt3__123__dispatch_copy_or_moveB8ne180100INS_17_ClassicAlgPolicyENS_11__move_loopIS1_EENS_14__move_trivialEPPNS_10unique_ptrI13ThreadContextNS_14default_deleteIS6_EEEESB_SB_EENS_4pairIT2_T4_EESD_T3_SE_, symObjAddr: 0x68A8, symBinAddr: 0x10000B850, symSize: 0x44 }
  - { offset: 0x156C4, size: 0x8, addend: 0x0, symName: __ZNSt3__121__unwrap_and_dispatchB8ne180100INS_10__overloadINS_11__move_loopINS_17_ClassicAlgPolicyEEENS_14__move_trivialEEEPPNS_10unique_ptrI13ThreadContextNS_14default_deleteIS8_EEEESD_SD_Li0EEENS_4pairIT0_T2_EESF_T1_SG_, symObjAddr: 0x68EC, symBinAddr: 0x10000B894, symSize: 0xB4 }
  - { offset: 0x15753, size: 0x8, addend: 0x0, symName: __ZNSt3__114__unwrap_rangeB8ne180100IPPNS_10unique_ptrI13ThreadContextNS_14default_deleteIS2_EEEES7_EENS_4pairIT0_S9_EET_SB_, symObjAddr: 0x69A0, symBinAddr: 0x10000B948, symSize: 0x60 }
  - { offset: 0x1591B, size: 0x8, addend: 0x0, symName: __ZNSt3__113__unwrap_iterB8ne180100IPPNS_10unique_ptrI13ThreadContextNS_14default_deleteIS2_EEEENS_18__unwrap_iter_implIS7_Lb1EEELi0EEEDTclsrT0_8__unwrapclsr3stdE7declvalIT_EEEESB_, symObjAddr: 0x6A48, symBinAddr: 0x10000B9F0, symSize: 0x24 }
  - { offset: 0x15960, size: 0x8, addend: 0x0, symName: __ZNSt3__19make_pairB8ne180100IPPNS_10unique_ptrI13ThreadContextNS_14default_deleteIS2_EEEES7_EENS_4pairINS_18__unwrap_ref_decayIT_E4typeENS9_IT0_E4typeEEEOSA_OSD_, symObjAddr: 0x6A6C, symBinAddr: 0x10000BA14, symSize: 0x38 }
  - { offset: 0x159AF, size: 0x8, addend: 0x0, symName: __ZNSt3__114__rewrap_rangeB8ne180100IPPNS_10unique_ptrI13ThreadContextNS_14default_deleteIS2_EEEES7_EET_S8_T0_, symObjAddr: 0x6AA4, symBinAddr: 0x10000BA4C, symSize: 0x2C }
  - { offset: 0x159FB, size: 0x8, addend: 0x0, symName: __ZNSt3__113__rewrap_iterB8ne180100IPPNS_10unique_ptrI13ThreadContextNS_14default_deleteIS2_EEEES7_NS_18__unwrap_iter_implIS7_Lb1EEEEET_SA_T0_, symObjAddr: 0x6AD0, symBinAddr: 0x10000BA78, symSize: 0x3C }
  - { offset: 0x15A50, size: 0x8, addend: 0x0, symName: __ZNSt3__119__copy_trivial_implB8ne180100IPNS_10unique_ptrI13ThreadContextNS_14default_deleteIS2_EEEES6_EENS_4pairIPT_PT0_EES9_S9_SB_, symObjAddr: 0x6B0C, symBinAddr: 0x10000BAB4, symSize: 0x80 }
  - { offset: 0x15AB8, size: 0x8, addend: 0x0, symName: __ZNSt3__119__constexpr_memmoveB8ne180100IPNS_10unique_ptrI13ThreadContextNS_14default_deleteIS2_EEEES6_Li0EEEPT_S8_PT0_NS_15__element_countE, symObjAddr: 0x6B8C, symBinAddr: 0x10000BB34, symSize: 0x64 }
  - { offset: 0x15B27, size: 0x8, addend: 0x0, symName: __ZNSt3__19make_pairB8ne180100IRPPNS_10unique_ptrI13ThreadContextNS_14default_deleteIS2_EEEES7_EENS_4pairINS_18__unwrap_ref_decayIT_E4typeENSA_IT0_E4typeEEEOSB_OSE_, symObjAddr: 0x6BF0, symBinAddr: 0x10000BB98, symSize: 0x38 }
  - { offset: 0x15BCA, size: 0x8, addend: 0x0, symName: __ZNSt3__18distanceB8ne180100INS_13move_iteratorIPPNS_10unique_ptrI13ThreadContextNS_14default_deleteIS3_EEEEEEEENS_15iterator_traitsIT_E15difference_typeESB_SB_, symObjAddr: 0x6E58, symBinAddr: 0x10000BE00, symSize: 0x3C }
  - { offset: 0x15C0D, size: 0x8, addend: 0x0, symName: __ZNSt3__110__distanceB8ne180100INS_13move_iteratorIPPNS_10unique_ptrI13ThreadContextNS_14default_deleteIS3_EEEEEEEENS_15iterator_traitsIT_E15difference_typeESB_SB_NS_26random_access_iterator_tagE, symObjAddr: 0x705C, symBinAddr: 0x10000C004, symSize: 0x30 }
  - { offset: 0x15C5B, size: 0x8, addend: 0x0, symName: __ZNSt3__1miB8ne180100IPPNS_10unique_ptrI13ThreadContextNS_14default_deleteIS2_EEEES7_EEDTmicldtfp_4baseEcldtfp0_4baseEERKNS_13move_iteratorIT_EERKNS9_IT0_EE, symObjAddr: 0x708C, symBinAddr: 0x10000C034, symSize: 0x48 }
  - { offset: 0x15CAA, size: 0x8, addend: 0x0, symName: __ZNSt3__113move_backwardB8ne180100IPPNS_10unique_ptrI13ThreadContextNS_14default_deleteIS2_EEEES7_EET0_T_S9_S8_, symObjAddr: 0x71C4, symBinAddr: 0x10000C16C, symSize: 0x40 }
  - { offset: 0x15D04, size: 0x8, addend: 0x0, symName: __ZNSt3__115__move_backwardB8ne180100INS_17_ClassicAlgPolicyEPPNS_10unique_ptrI13ThreadContextNS_14default_deleteIS3_EEEES8_S8_EENS_4pairIT0_T2_EESA_T1_SB_, symObjAddr: 0x7204, symBinAddr: 0x10000C1AC, symSize: 0x44 }
  - { offset: 0x15D70, size: 0x8, addend: 0x0, symName: __ZNSt3__123__dispatch_copy_or_moveB8ne180100INS_17_ClassicAlgPolicyENS_20__move_backward_loopIS1_EENS_23__move_backward_trivialEPPNS_10unique_ptrI13ThreadContextNS_14default_deleteIS6_EEEESB_SB_EENS_4pairIT2_T4_EESD_T3_SE_, symObjAddr: 0x7248, symBinAddr: 0x10000C1F0, symSize: 0x44 }
  - { offset: 0x15DEE, size: 0x8, addend: 0x0, symName: __ZNSt3__121__unwrap_and_dispatchB8ne180100INS_10__overloadINS_20__move_backward_loopINS_17_ClassicAlgPolicyEEENS_23__move_backward_trivialEEEPPNS_10unique_ptrI13ThreadContextNS_14default_deleteIS8_EEEESD_SD_Li0EEENS_4pairIT0_T2_EESF_T1_SG_, symObjAddr: 0x728C, symBinAddr: 0x10000C234, symSize: 0xB4 }
  - { offset: 0x15EC4, size: 0x8, addend: 0x0, symName: __ZNSt3__128__copy_backward_trivial_implB8ne180100IPNS_10unique_ptrI13ThreadContextNS_14default_deleteIS2_EEEES6_EENS_4pairIPT_PT0_EES9_S9_SB_, symObjAddr: 0x7388, symBinAddr: 0x10000C330, symSize: 0x90 }
  - { offset: 0x15F2C, size: 0x8, addend: 0x0, symName: __ZNSt3__19make_pairB8ne180100IRPPNS_10unique_ptrI13ThreadContextNS_14default_deleteIS2_EEEES8_EENS_4pairINS_18__unwrap_ref_decayIT_E4typeENSA_IT0_E4typeEEEOSB_OSE_, symObjAddr: 0x7418, symBinAddr: 0x10000C3C0, symSize: 0x38 }
  - { offset: 0x15F7B, size: 0x8, addend: 0x0, symName: __ZNSt3__119__allocate_at_leastB8ne180100INS_9allocatorIPNS_10unique_ptrI13ThreadContextNS_14default_deleteIS3_EEEEEEEENS_19__allocation_resultINS_16allocator_traitsIT_E7pointerEEERSB_m, symObjAddr: 0x75D0, symBinAddr: 0x10000C578, symSize: 0x40 }
  - { offset: 0x15FBE, size: 0x8, addend: 0x0, symName: __ZNSt3__112__to_addressB8ne180100INS_10unique_ptrI13ThreadContextNS_14default_deleteIS2_EEEEEEPT_S7_, symObjAddr: 0x7F54, symBinAddr: 0x10000CEFC, symSize: 0x14 }
  - { offset: 0x16E8F, size: 0x8, addend: 0x0, symName: __ZSt28__throw_bad_array_new_lengthB8ne180100v, symObjAddr: 0x1888, symBinAddr: 0x100006954, symSize: 0x34 }
  - { offset: 0x174E3, size: 0x8, addend: 0x0, symName: __ZNSt3__16vectorIPcNS_9allocatorIS1_EEE26__swap_out_circular_bufferERNS_14__split_bufferIS1_RS3_EE, symObjAddr: 0x10F0, symBinAddr: 0x1000061BC, symSize: 0x110 }
  - { offset: 0x178CA, size: 0x8, addend: 0x0, symName: __ZN3cpu12startContextEPFvmEm, symObjAddr: 0x0, symBinAddr: 0x1000050CC, symSize: 0x168 }
  - { offset: 0x17937, size: 0x8, addend: 0x0, symName: __ZNKSt3__110unique_ptrI17__darwin_ucontextNS_14default_deleteIS1_EEEptB8ne180100Ev, symObjAddr: 0x1AC, symBinAddr: 0x100005278, symSize: 0x28 }
  - { offset: 0x1795B, size: 0x8, addend: 0x0, symName: __ZNKSt3__110unique_ptrI17__darwin_ucontextNS_14default_deleteIS1_EEE3getB8ne180100Ev, symObjAddr: 0x1D4, symBinAddr: 0x1000052A0, symSize: 0x28 }
  - { offset: 0x17980, size: 0x8, addend: 0x0, symName: __ZNSt3__16vectorIPcNS_9allocatorIS1_EEE9push_backB8ne180100ERKS1_, symObjAddr: 0x1FC, symBinAddr: 0x1000052C8, symSize: 0x90 }
  - { offset: 0x179C4, size: 0x8, addend: 0x0, symName: __ZNSt3__15queueINS_10unique_ptrI13ThreadContextNS_14default_deleteIS2_EEEENS_5dequeIS5_NS_9allocatorIS5_EEEEE4pushB8ne180100EOS5_, symObjAddr: 0x348, symBinAddr: 0x100005414, symSize: 0x2C }
  - { offset: 0x179F8, size: 0x8, addend: 0x0, symName: __ZNSt3__110unique_ptrI13ThreadContextNS_14default_deleteIS1_EEED1B8ne180100Ev, symObjAddr: 0x374, symBinAddr: 0x100005440, symSize: 0x2C }
  - { offset: 0x17A21, size: 0x8, addend: 0x0, symName: __ZNSt3__110unique_ptrI17__darwin_ucontextNS_14default_deleteIS1_EEED1B8ne180100Ev, symObjAddr: 0x3A0, symBinAddr: 0x10000546C, symSize: 0x2C }
  - { offset: 0x17A4A, size: 0x8, addend: 0x0, symName: __ZN3cpu12ipiInterruptEv, symObjAddr: 0x3CC, symBinAddr: 0x100005498, symSize: 0x4 }
  - { offset: 0x17A5F, size: 0x8, addend: 0x0, symName: __ZN3cpuC2EPFvmEm, symObjAddr: 0x3D0, symBinAddr: 0x10000549C, symSize: 0x2D8 }
  - { offset: 0x17AC9, size: 0x8, addend: 0x0, symName: __ZNSt3__110unique_ptrI17__darwin_ucontextNS_14default_deleteIS1_EEEC1B8ne180100ILb1EvEEv, symObjAddr: 0x6A8, symBinAddr: 0x100005774, symSize: 0x2C }
  - { offset: 0x17AFC, size: 0x8, addend: 0x0, symName: __ZNSt3__110unique_ptrI17__darwin_ucontextNS_14default_deleteIS1_EEEaSB8ne180100EOS4_, symObjAddr: 0x6D4, symBinAddr: 0x1000057A0, symSize: 0x50 }
  - { offset: 0x17B2E, size: 0x8, addend: 0x0, symName: __ZNKSt3__15queueINS_10unique_ptrI13ThreadContextNS_14default_deleteIS2_EEEENS_5dequeIS5_NS_9allocatorIS5_EEEEE5emptyB8ne180100Ev, symObjAddr: 0x724, symBinAddr: 0x1000057F0, symSize: 0x28 }
  - { offset: 0x17B52, size: 0x8, addend: 0x0, symName: __ZNSt3__15queueINS_10unique_ptrI13ThreadContextNS_14default_deleteIS2_EEEENS_5dequeIS5_NS_9allocatorIS5_EEEEE5frontB8ne180100Ev, symObjAddr: 0x74C, symBinAddr: 0x100005818, symSize: 0x24 }
  - { offset: 0x17B76, size: 0x8, addend: 0x0, symName: __ZNSt3__110unique_ptrI13ThreadContextNS_14default_deleteIS1_EEEaSB8ne180100EOS4_, symObjAddr: 0x770, symBinAddr: 0x10000583C, symSize: 0x50 }
  - { offset: 0x17BA8, size: 0x8, addend: 0x0, symName: __ZNSt3__15queueINS_10unique_ptrI13ThreadContextNS_14default_deleteIS2_EEEENS_5dequeIS5_NS_9allocatorIS5_EEEEE3popB8ne180100Ev, symObjAddr: 0x7C0, symBinAddr: 0x10000588C, symSize: 0x24 }
  - { offset: 0x17BCC, size: 0x8, addend: 0x0, symName: __ZNKSt3__110unique_ptrI13ThreadContextNS_14default_deleteIS1_EEEptB8ne180100Ev, symObjAddr: 0x7E4, symBinAddr: 0x1000058B0, symSize: 0x28 }
  - { offset: 0x17BF0, size: 0x8, addend: 0x0, symName: __ZNKSt3__110unique_ptrI13ThreadContextNS_14default_deleteIS1_EEEcvbB8ne180100Ev, symObjAddr: 0x80C, symBinAddr: 0x1000058D8, symSize: 0x34 }
  - { offset: 0x17C15, size: 0x8, addend: 0x0, symName: __ZNSt3__16vectorIPcNS_9allocatorIS1_EEEixB8ne180100Em, symObjAddr: 0x840, symBinAddr: 0x10000590C, symSize: 0x24 }
  - { offset: 0x17C4A, size: 0x8, addend: 0x0, symName: __ZN3cpuC1EPFvmEm, symObjAddr: 0x864, symBinAddr: 0x100005930, symSize: 0x3C }
  - { offset: 0x17C91, size: 0x8, addend: 0x0, symName: __Z23cpu_interrupts_disabledv, symObjAddr: 0x8A0, symBinAddr: 0x10000596C, symSize: 0x20 }
  - { offset: 0x17CAF, size: 0x8, addend: 0x0, symName: __ZNSt3__110unique_ptrI17__darwin_ucontextNS_14default_deleteIS1_EEEC2B8ne180100ILb1EvEEv, symObjAddr: 0x8C0, symBinAddr: 0x10000598C, symSize: 0x3C }
  - { offset: 0x17CE8, size: 0x8, addend: 0x0, symName: __ZNSt3__117__compressed_pairIP17__darwin_ucontextNS_14default_deleteIS1_EEEC1B8ne180100INS_16__value_init_tagES7_EEOT_OT0_, symObjAddr: 0x8FC, symBinAddr: 0x1000059C8, symSize: 0x3C }
  - { offset: 0x17D3F, size: 0x8, addend: 0x0, symName: __ZNSt3__117__compressed_pairIP17__darwin_ucontextNS_14default_deleteIS1_EEEC2B8ne180100INS_16__value_init_tagES7_EEOT_OT0_, symObjAddr: 0x948, symBinAddr: 0x100005A14, symSize: 0x3C }
  - { offset: 0x17D96, size: 0x8, addend: 0x0, symName: __ZNSt3__122__compressed_pair_elemIP17__darwin_ucontextLi0ELb0EEC2B8ne180100ENS_16__value_init_tagE, symObjAddr: 0x984, symBinAddr: 0x100005A50, symSize: 0x18 }
  - { offset: 0x17DCA, size: 0x8, addend: 0x0, symName: __ZNSt3__122__compressed_pair_elemINS_14default_deleteI17__darwin_ucontextEELi1ELb1EEC2B8ne180100ENS_16__value_init_tagE, symObjAddr: 0x99C, symBinAddr: 0x100005A68, symSize: 0x14 }
  - { offset: 0x17DFE, size: 0x8, addend: 0x0, symName: __ZNSt3__110unique_ptrI17__darwin_ucontextNS_14default_deleteIS1_EEED2B8ne180100Ev, symObjAddr: 0x9B0, symBinAddr: 0x100005A7C, symSize: 0x30 }
  - { offset: 0x17E26, size: 0x8, addend: 0x0, symName: __ZNSt3__110unique_ptrI17__darwin_ucontextNS_14default_deleteIS1_EEE5resetB8ne180100EPS1_, symObjAddr: 0x9E0, symBinAddr: 0x100005AAC, symSize: 0x78 }
  - { offset: 0x17E68, size: 0x8, addend: 0x0, symName: __ZNSt3__117__compressed_pairIP17__darwin_ucontextNS_14default_deleteIS1_EEE5firstB8ne180100Ev, symObjAddr: 0xA58, symBinAddr: 0x100005B24, symSize: 0x24 }
  - { offset: 0x17E8C, size: 0x8, addend: 0x0, symName: __ZNSt3__117__compressed_pairIP17__darwin_ucontextNS_14default_deleteIS1_EEE6secondB8ne180100Ev, symObjAddr: 0xA7C, symBinAddr: 0x100005B48, symSize: 0x24 }
  - { offset: 0x17EB0, size: 0x8, addend: 0x0, symName: __ZNKSt3__114default_deleteI17__darwin_ucontextEclB8ne180100EPS1_, symObjAddr: 0xAA0, symBinAddr: 0x100005B6C, symSize: 0x44 }
  - { offset: 0x17EE3, size: 0x8, addend: 0x0, symName: __ZNSt3__122__compressed_pair_elemIP17__darwin_ucontextLi0ELb0EE5__getB8ne180100Ev, symObjAddr: 0xAE4, symBinAddr: 0x100005BB0, symSize: 0x14 }
  - { offset: 0x17F08, size: 0x8, addend: 0x0, symName: __ZNSt3__122__compressed_pair_elemINS_14default_deleteI17__darwin_ucontextEELi1ELb1EE5__getB8ne180100Ev, symObjAddr: 0xAF8, symBinAddr: 0x100005BC4, symSize: 0x14 }
  - { offset: 0x17F2D, size: 0x8, addend: 0x0, symName: __ZNSt3__110unique_ptrI17__darwin_ucontextNS_14default_deleteIS1_EEEC1B8ne180100ILb1EvEEPS1_, symObjAddr: 0xB0C, symBinAddr: 0x100005BD8, symSize: 0x34 }
  - { offset: 0x17F6F, size: 0x8, addend: 0x0, symName: __ZNSt3__110unique_ptrI17__darwin_ucontextNS_14default_deleteIS1_EEEC2B8ne180100ILb1EvEEPS1_, symObjAddr: 0xB40, symBinAddr: 0x100005C0C, symSize: 0x44 }
  - { offset: 0x17FB1, size: 0x8, addend: 0x0, symName: __ZNSt3__117__compressed_pairIP17__darwin_ucontextNS_14default_deleteIS1_EEEC1B8ne180100IRS2_NS_16__value_init_tagEEEOT_OT0_, symObjAddr: 0xB84, symBinAddr: 0x100005C50, symSize: 0x3C }
  - { offset: 0x18008, size: 0x8, addend: 0x0, symName: __ZNSt3__117__compressed_pairIP17__darwin_ucontextNS_14default_deleteIS1_EEEC2B8ne180100IRS2_NS_16__value_init_tagEEEOT_OT0_, symObjAddr: 0xBC0, symBinAddr: 0x100005C8C, symSize: 0x40 }
  - { offset: 0x1805F, size: 0x8, addend: 0x0, symName: __ZNSt3__122__compressed_pair_elemIP17__darwin_ucontextLi0ELb0EEC2B8ne180100IRS2_vEEOT_, symObjAddr: 0xC00, symBinAddr: 0x100005CCC, symSize: 0x24 }
  - { offset: 0x1809F, size: 0x8, addend: 0x0, symName: __ZNKSt3__117__compressed_pairIP17__darwin_ucontextNS_14default_deleteIS1_EEE5firstB8ne180100Ev, symObjAddr: 0xC24, symBinAddr: 0x100005CF0, symSize: 0x24 }
  - { offset: 0x180C4, size: 0x8, addend: 0x0, symName: __ZNKSt3__122__compressed_pair_elemIP17__darwin_ucontextLi0ELb0EE5__getB8ne180100Ev, symObjAddr: 0xC48, symBinAddr: 0x100005D14, symSize: 0x14 }
  - { offset: 0x180E8, size: 0x8, addend: 0x0, symName: __ZNSt3__16vectorIPcNS_9allocatorIS1_EEE9__end_capB8ne180100Ev, symObjAddr: 0xC5C, symBinAddr: 0x100005D28, symSize: 0x28 }
  - { offset: 0x1810C, size: 0x8, addend: 0x0, symName: __ZNSt3__16vectorIPcNS_9allocatorIS1_EEE22__construct_one_at_endB8ne180100IJRKS1_EEEvDpOT_, symObjAddr: 0xC84, symBinAddr: 0x100005D50, symSize: 0x90 }
  - { offset: 0x1815A, size: 0x8, addend: 0x0, symName: __ZNSt3__16vectorIPcNS_9allocatorIS1_EEE21__push_back_slow_pathIRKS1_EEPS1_OT_, symObjAddr: 0xD14, symBinAddr: 0x100005DE0, symSize: 0xE8 }
  - { offset: 0x181B6, size: 0x8, addend: 0x0, symName: __ZNSt3__117__compressed_pairIPPcNS_9allocatorIS1_EEE5firstB8ne180100Ev, symObjAddr: 0xDFC, symBinAddr: 0x100005EC8, symSize: 0x24 }
  - { offset: 0x181DB, size: 0x8, addend: 0x0, symName: __ZNSt3__122__compressed_pair_elemIPPcLi0ELb0EE5__getB8ne180100Ev, symObjAddr: 0xE20, symBinAddr: 0x100005EEC, symSize: 0x14 }
  - { offset: 0x18219, size: 0x8, addend: 0x0, symName: __ZNSt3__16vectorIPcNS_9allocatorIS1_EEE21_ConstructTransactionC1B8ne180100ERS4_m, symObjAddr: 0xE34, symBinAddr: 0x100005F00, symSize: 0x3C }
  - { offset: 0x18260, size: 0x8, addend: 0x0, symName: __ZNSt3__116allocator_traitsINS_9allocatorIPcEEE9constructB8ne180100IS2_JRKS2_EvEEvRS3_PT_DpOT0_, symObjAddr: 0xE70, symBinAddr: 0x100005F3C, symSize: 0x34 }
  - { offset: 0x182B6, size: 0x8, addend: 0x0, symName: __ZNSt3__16vectorIPcNS_9allocatorIS1_EEE7__allocB8ne180100Ev, symObjAddr: 0xEA4, symBinAddr: 0x100005F70, symSize: 0x28 }
  - { offset: 0x182DB, size: 0x8, addend: 0x0, symName: __ZNSt3__16vectorIPcNS_9allocatorIS1_EEE21_ConstructTransactionD1B8ne180100Ev, symObjAddr: 0xEE0, symBinAddr: 0x100005FAC, symSize: 0x2C }
  - { offset: 0x18304, size: 0x8, addend: 0x0, symName: __ZNSt3__16vectorIPcNS_9allocatorIS1_EEE21_ConstructTransactionC2B8ne180100ERS4_m, symObjAddr: 0xF0C, symBinAddr: 0x100005FD8, symSize: 0x44 }
  - { offset: 0x1834B, size: 0x8, addend: 0x0, symName: __ZNSt3__19allocatorIPcE9constructB8ne180100IS1_JRKS1_EEEvPT_DpOT0_, symObjAddr: 0xF50, symBinAddr: 0x10000601C, symSize: 0x28 }
  - { offset: 0x1839F, size: 0x8, addend: 0x0, symName: __ZNSt3__117__compressed_pairIPPcNS_9allocatorIS1_EEE6secondB8ne180100Ev, symObjAddr: 0xF78, symBinAddr: 0x100006044, symSize: 0x24 }
  - { offset: 0x183C4, size: 0x8, addend: 0x0, symName: __ZNSt3__122__compressed_pair_elemINS_9allocatorIPcEELi1ELb1EE5__getB8ne180100Ev, symObjAddr: 0xF9C, symBinAddr: 0x100006068, symSize: 0x14 }
  - { offset: 0x183E9, size: 0x8, addend: 0x0, symName: __ZNSt3__16vectorIPcNS_9allocatorIS1_EEE21_ConstructTransactionD2B8ne180100Ev, symObjAddr: 0xFB0, symBinAddr: 0x10000607C, symSize: 0x20 }
  - { offset: 0x18412, size: 0x8, addend: 0x0, symName: __ZNKSt3__16vectorIPcNS_9allocatorIS1_EEE11__recommendB8ne180100Em, symObjAddr: 0xFD0, symBinAddr: 0x10000609C, symSize: 0xB4 }
  - { offset: 0x18466, size: 0x8, addend: 0x0, symName: __ZNKSt3__16vectorIPcNS_9allocatorIS1_EEE4sizeB8ne180100Ev, symObjAddr: 0x1084, symBinAddr: 0x100006150, symSize: 0x28 }
  - { offset: 0x1848B, size: 0x8, addend: 0x0, symName: __ZNSt3__114__split_bufferIPcRNS_9allocatorIS1_EEEC1EmmS4_, symObjAddr: 0x10AC, symBinAddr: 0x100006178, symSize: 0x44 }
  - { offset: 0x184E0, size: 0x8, addend: 0x0, symName: __ZNSt3__114__split_bufferIPcRNS_9allocatorIS1_EEED1Ev, symObjAddr: 0x1200, symBinAddr: 0x1000062CC, symSize: 0x2C }
  - { offset: 0x1850B, size: 0x8, addend: 0x0, symName: __ZNKSt3__16vectorIPcNS_9allocatorIS1_EEE8max_sizeEv, symObjAddr: 0x122C, symBinAddr: 0x1000062F8, symSize: 0x60 }
  - { offset: 0x18531, size: 0x8, addend: 0x0, symName: __ZNKSt3__16vectorIPcNS_9allocatorIS1_EEE20__throw_length_errorB8ne180100Ev, symObjAddr: 0x128C, symBinAddr: 0x100006358, symSize: 0x1C }
  - { offset: 0x18555, size: 0x8, addend: 0x0, symName: __ZNKSt3__16vectorIPcNS_9allocatorIS1_EEE8capacityB8ne180100Ev, symObjAddr: 0x12A8, symBinAddr: 0x100006374, symSize: 0x40 }
  - { offset: 0x18584, size: 0x8, addend: 0x0, symName: __ZNSt3__116allocator_traitsINS_9allocatorIPcEEE8max_sizeB8ne180100IS3_vEEmRKS3_, symObjAddr: 0x1340, symBinAddr: 0x10000640C, symSize: 0x24 }
  - { offset: 0x185B1, size: 0x8, addend: 0x0, symName: __ZNKSt3__16vectorIPcNS_9allocatorIS1_EEE7__allocB8ne180100Ev, symObjAddr: 0x1364, symBinAddr: 0x100006430, symSize: 0x28 }
  - { offset: 0x185D6, size: 0x8, addend: 0x0, symName: __ZNSt3__114numeric_limitsIlE3maxB8ne180100Ev, symObjAddr: 0x138C, symBinAddr: 0x100006458, symSize: 0x14 }
  - { offset: 0x185F4, size: 0x8, addend: 0x0, symName: __ZNKSt3__16__lessIvvEclB8ne180100ImmEEbRKT_RKT0_, symObjAddr: 0x13F4, symBinAddr: 0x1000064C0, symSize: 0x34 }
  - { offset: 0x18647, size: 0x8, addend: 0x0, symName: __ZNKSt3__19allocatorIPcE8max_sizeB8ne180100Ev, symObjAddr: 0x1428, symBinAddr: 0x1000064F4, symSize: 0x14 }
  - { offset: 0x1866B, size: 0x8, addend: 0x0, symName: __ZNKSt3__117__compressed_pairIPPcNS_9allocatorIS1_EEE6secondB8ne180100Ev, symObjAddr: 0x143C, symBinAddr: 0x100006508, symSize: 0x24 }
  - { offset: 0x18690, size: 0x8, addend: 0x0, symName: __ZNKSt3__122__compressed_pair_elemINS_9allocatorIPcEELi1ELb1EE5__getB8ne180100Ev, symObjAddr: 0x1460, symBinAddr: 0x10000652C, symSize: 0x14 }
  - { offset: 0x186B5, size: 0x8, addend: 0x0, symName: __ZNSt3__123__libcpp_numeric_limitsIlLb1EE3maxB8ne180100Ev, symObjAddr: 0x1474, symBinAddr: 0x100006540, symSize: 0x8 }
  - { offset: 0x186C9, size: 0x8, addend: 0x0, symName: __ZNSt12length_errorC1B8ne180100EPKc, symObjAddr: 0x14E0, symBinAddr: 0x1000065AC, symSize: 0x34 }
  - { offset: 0x18700, size: 0x8, addend: 0x0, symName: __ZNSt12length_errorC2B8ne180100EPKc, symObjAddr: 0x1514, symBinAddr: 0x1000065E0, symSize: 0x44 }
  - { offset: 0x18736, size: 0x8, addend: 0x0, symName: __ZNKSt3__16vectorIPcNS_9allocatorIS1_EEE9__end_capB8ne180100Ev, symObjAddr: 0x1558, symBinAddr: 0x100006624, symSize: 0x28 }
  - { offset: 0x1875A, size: 0x8, addend: 0x0, symName: __ZNKSt3__117__compressed_pairIPPcNS_9allocatorIS1_EEE5firstB8ne180100Ev, symObjAddr: 0x1580, symBinAddr: 0x10000664C, symSize: 0x24 }
  - { offset: 0x1877F, size: 0x8, addend: 0x0, symName: __ZNKSt3__122__compressed_pair_elemIPPcLi0ELb0EE5__getB8ne180100Ev, symObjAddr: 0x15A4, symBinAddr: 0x100006670, symSize: 0x14 }
  - { offset: 0x187A4, size: 0x8, addend: 0x0, symName: __ZNSt3__114__split_bufferIPcRNS_9allocatorIS1_EEEC2EmmS4_, symObjAddr: 0x160C, symBinAddr: 0x1000066D8, symSize: 0xD4 }
  - { offset: 0x1881B, size: 0x8, addend: 0x0, symName: __ZNSt3__117__compressed_pairIPPcRNS_9allocatorIS1_EEEC1B8ne180100IDnS5_EEOT_OT0_, symObjAddr: 0x16E0, symBinAddr: 0x1000067AC, symSize: 0x3C }
  - { offset: 0x18871, size: 0x8, addend: 0x0, symName: __ZNSt3__114__split_bufferIPcRNS_9allocatorIS1_EEE7__allocB8ne180100Ev, symObjAddr: 0x175C, symBinAddr: 0x100006828, symSize: 0x28 }
  - { offset: 0x18895, size: 0x8, addend: 0x0, symName: __ZNSt3__114__split_bufferIPcRNS_9allocatorIS1_EEE9__end_capB8ne180100Ev, symObjAddr: 0x1784, symBinAddr: 0x100006850, symSize: 0x28 }
  - { offset: 0x188BA, size: 0x8, addend: 0x0, symName: __ZNSt3__117__compressed_pairIPPcRNS_9allocatorIS1_EEEC2B8ne180100IDnS5_EEOT_OT0_, symObjAddr: 0x17AC, symBinAddr: 0x100006878, symSize: 0x48 }
  - { offset: 0x18911, size: 0x8, addend: 0x0, symName: __ZNSt3__122__compressed_pair_elemIPPcLi0ELb0EEC2B8ne180100IDnvEEOT_, symObjAddr: 0x17F4, symBinAddr: 0x1000068C0, symSize: 0x1C }
  - { offset: 0x18952, size: 0x8, addend: 0x0, symName: __ZNSt3__122__compressed_pair_elemIRNS_9allocatorIPcEELi1ELb0EEC2B8ne180100IS4_vEEOT_, symObjAddr: 0x1810, symBinAddr: 0x1000068DC, symSize: 0x20 }
  - { offset: 0x18992, size: 0x8, addend: 0x0, symName: __ZNSt3__19allocatorIPcE8allocateB8ne180100Em, symObjAddr: 0x1830, symBinAddr: 0x1000068FC, symSize: 0x58 }
  - { offset: 0x189C4, size: 0x8, addend: 0x0, symName: __ZNSt3__117__compressed_pairIPPcRNS_9allocatorIS1_EEE6secondB8ne180100Ev, symObjAddr: 0x198C, symBinAddr: 0x100006A58, symSize: 0x28 }
  - { offset: 0x189E9, size: 0x8, addend: 0x0, symName: __ZNSt3__122__compressed_pair_elemIRNS_9allocatorIPcEELi1ELb0EE5__getB8ne180100Ev, symObjAddr: 0x19B4, symBinAddr: 0x100006A80, symSize: 0x18 }
  - { offset: 0x18A0D, size: 0x8, addend: 0x0, symName: __ZNSt3__117__compressed_pairIPPcRNS_9allocatorIS1_EEE5firstB8ne180100Ev, symObjAddr: 0x19CC, symBinAddr: 0x100006A98, symSize: 0x24 }
  - { offset: 0x18A32, size: 0x8, addend: 0x0, symName: __ZNKSt3__16vectorIPcNS_9allocatorIS1_EEE17__annotate_deleteB8ne180100Ev, symObjAddr: 0x19F0, symBinAddr: 0x100006ABC, symSize: 0x10 }
  - { offset: 0x18A57, size: 0x8, addend: 0x0, symName: __ZNSt3__116reverse_iteratorIPPcEC1B8ne180100ES2_, symObjAddr: 0x1A78, symBinAddr: 0x100006B44, symSize: 0x34 }
  - { offset: 0x18A8E, size: 0x8, addend: 0x0, symName: __ZNKSt3__116reverse_iteratorIPPcE4baseB8ne180100Ev, symObjAddr: 0x1AAC, symBinAddr: 0x100006B78, symSize: 0x18 }
  - { offset: 0x18AB3, size: 0x8, addend: 0x0, symName: __ZNKSt3__16vectorIPcNS_9allocatorIS1_EEE14__annotate_newB8ne180100Em, symObjAddr: 0x1B00, symBinAddr: 0x100006BCC, symSize: 0x14 }
  - { offset: 0x18B09, size: 0x8, addend: 0x0, symName: __ZNKSt3__111__move_loopINS_17_ClassicAlgPolicyEEclB8ne180100INS_16reverse_iteratorIPPcEES7_S7_EENS_4pairIT_T1_EES9_T0_SA_, symObjAddr: 0x1E04, symBinAddr: 0x100006ED0, symSize: 0xA0 }
  - { offset: 0x18B78, size: 0x8, addend: 0x0, symName: __ZNSt3__18_IterOpsINS_17_ClassicAlgPolicyEE11__iter_moveB8ne180100IRNS_16reverse_iteratorIPPcEELi0EEEDTclsr3stdE4movedeclsr3stdE7declvalIRT_EEEEOS9_, symObjAddr: 0x2038, symBinAddr: 0x100007104, symSize: 0x28 }
  - { offset: 0x18BAB, size: 0x8, addend: 0x0, symName: __ZNKSt3__116reverse_iteratorIPPcEdeB8ne180100Ev, symObjAddr: 0x2060, symBinAddr: 0x10000712C, symSize: 0x28 }
  - { offset: 0x18BDE, size: 0x8, addend: 0x0, symName: __ZNSt3__116reverse_iteratorIPPcEppB8ne180100Ev, symObjAddr: 0x2088, symBinAddr: 0x100007154, symSize: 0x20 }
  - { offset: 0x18C03, size: 0x8, addend: 0x0, symName: __ZNSt3__18_IterOpsINS_17_ClassicAlgPolicyEE25__validate_iter_referenceB8ne180100IRNS_16reverse_iteratorIPPcEEEEvv, symObjAddr: 0x20A8, symBinAddr: 0x100007174, symSize: 0x4 }
  - { offset: 0x18C21, size: 0x8, addend: 0x0, symName: __ZNSt3__118__unwrap_iter_implINS_16reverse_iteratorIPPcEELb0EE8__unwrapB8ne180100ES4_, symObjAddr: 0x20AC, symBinAddr: 0x100007178, symSize: 0x24 }
  - { offset: 0x18C49, size: 0x8, addend: 0x0, symName: __ZNSt3__14pairINS_16reverse_iteratorIPPcEES4_EC1B8ne180100IS4_S4_Li0EEEOT_OT0_, symObjAddr: 0x20D0, symBinAddr: 0x10000719C, symSize: 0x3C }
  - { offset: 0x18CA7, size: 0x8, addend: 0x0, symName: __ZNSt3__14pairINS_16reverse_iteratorIPPcEES4_EC2B8ne180100IS4_S4_Li0EEEOT_OT0_, symObjAddr: 0x210C, symBinAddr: 0x1000071D8, symSize: 0x34 }
  - { offset: 0x18D05, size: 0x8, addend: 0x0, symName: __ZNSt3__118__unwrap_iter_implINS_16reverse_iteratorIPPcEELb0EE8__rewrapB8ne180100ES4_S4_, symObjAddr: 0x2140, symBinAddr: 0x10000720C, symSize: 0x2C }
  - { offset: 0x18D33, size: 0x8, addend: 0x0, symName: __ZNSt3__116reverse_iteratorIPPcEC2B8ne180100ES2_, symObjAddr: 0x216C, symBinAddr: 0x100007238, symSize: 0x28 }
  - { offset: 0x18D6A, size: 0x8, addend: 0x0, symName: __ZNSt3__114__split_bufferIPcRNS_9allocatorIS1_EEED2Ev, symObjAddr: 0x2194, symBinAddr: 0x100007260, symSize: 0x8C }
  - { offset: 0x18D94, size: 0x8, addend: 0x0, symName: __ZNSt3__114__split_bufferIPcRNS_9allocatorIS1_EEE5clearB8ne180100Ev, symObjAddr: 0x2220, symBinAddr: 0x1000072EC, symSize: 0x28 }
  - { offset: 0x18DB9, size: 0x8, addend: 0x0, symName: __ZNSt3__116allocator_traitsINS_9allocatorIPcEEE10deallocateB8ne180100ERS3_PS2_m, symObjAddr: 0x2248, symBinAddr: 0x100007314, symSize: 0x34 }
  - { offset: 0x18DFA, size: 0x8, addend: 0x0, symName: __ZNKSt3__114__split_bufferIPcRNS_9allocatorIS1_EEE8capacityB8ne180100Ev, symObjAddr: 0x227C, symBinAddr: 0x100007348, symSize: 0x40 }
  - { offset: 0x18E1E, size: 0x8, addend: 0x0, symName: __ZNSt3__114__split_bufferIPcRNS_9allocatorIS1_EEE17__destruct_at_endB8ne180100EPS1_, symObjAddr: 0x22BC, symBinAddr: 0x100007388, symSize: 0x2C }
  - { offset: 0x18E51, size: 0x8, addend: 0x0, symName: __ZNSt3__114__split_bufferIPcRNS_9allocatorIS1_EEE17__destruct_at_endB8ne180100EPS1_NS_17integral_constantIbLb0EEE, symObjAddr: 0x22E8, symBinAddr: 0x1000073B4, symSize: 0x80 }
  - { offset: 0x18E91, size: 0x8, addend: 0x0, symName: __ZNSt3__116allocator_traitsINS_9allocatorIPcEEE7destroyB8ne180100IS2_vEEvRS3_PT_, symObjAddr: 0x2368, symBinAddr: 0x100007434, symSize: 0x2C }
  - { offset: 0x18ECE, size: 0x8, addend: 0x0, symName: __ZNSt3__19allocatorIPcE7destroyB8ne180100EPS1_, symObjAddr: 0x2394, symBinAddr: 0x100007460, symSize: 0x14 }
  - { offset: 0x18F00, size: 0x8, addend: 0x0, symName: __ZNSt3__19allocatorIPcE10deallocateB8ne180100EPS1_m, symObjAddr: 0x23A8, symBinAddr: 0x100007474, symSize: 0x40 }
  - { offset: 0x18F40, size: 0x8, addend: 0x0, symName: __ZNKSt3__114__split_bufferIPcRNS_9allocatorIS1_EEE9__end_capB8ne180100Ev, symObjAddr: 0x24F0, symBinAddr: 0x1000075BC, symSize: 0x28 }
  - { offset: 0x18F64, size: 0x8, addend: 0x0, symName: __ZNKSt3__117__compressed_pairIPPcRNS_9allocatorIS1_EEE5firstB8ne180100Ev, symObjAddr: 0x2518, symBinAddr: 0x1000075E4, symSize: 0x24 }
  - { offset: 0x18F89, size: 0x8, addend: 0x0, symName: __ZNSt3__110unique_ptrI17__darwin_ucontextNS_14default_deleteIS1_EEEC1B8ne180100EOS4_, symObjAddr: 0x253C, symBinAddr: 0x100007608, symSize: 0x34 }
  - { offset: 0x18FC0, size: 0x8, addend: 0x0, symName: __ZN13ThreadContextC1ENSt3__110unique_ptrI17__darwin_ucontextNS0_14default_deleteIS2_EEEE, symObjAddr: 0x2570, symBinAddr: 0x10000763C, symSize: 0x34 }
  - { offset: 0x18FF8, size: 0x8, addend: 0x0, symName: __ZNSt3__110unique_ptrI13ThreadContextNS_14default_deleteIS1_EEEC1B8ne180100ILb1EvEEPS1_, symObjAddr: 0x25A4, symBinAddr: 0x100007670, symSize: 0x34 }
  - { offset: 0x1903A, size: 0x8, addend: 0x0, symName: __ZNSt3__110unique_ptrI17__darwin_ucontextNS_14default_deleteIS1_EEEC2B8ne180100EOS4_, symObjAddr: 0x25D8, symBinAddr: 0x1000076A4, symSize: 0x60 }
  - { offset: 0x19070, size: 0x8, addend: 0x0, symName: __ZNSt3__110unique_ptrI17__darwin_ucontextNS_14default_deleteIS1_EEE7releaseB8ne180100Ev, symObjAddr: 0x2638, symBinAddr: 0x100007704, symSize: 0x44 }
  - { offset: 0x190A3, size: 0x8, addend: 0x0, symName: __ZNSt3__110unique_ptrI17__darwin_ucontextNS_14default_deleteIS1_EEE11get_deleterB8ne180100Ev, symObjAddr: 0x267C, symBinAddr: 0x100007748, symSize: 0x24 }
  - { offset: 0x190D2, size: 0x8, addend: 0x0, symName: __ZNSt3__117__compressed_pairIP17__darwin_ucontextNS_14default_deleteIS1_EEEC1B8ne180100IS2_S4_EEOT_OT0_, symObjAddr: 0x26A0, symBinAddr: 0x10000776C, symSize: 0x3C }
  - { offset: 0x19129, size: 0x8, addend: 0x0, symName: __ZNSt3__117__compressed_pairIP17__darwin_ucontextNS_14default_deleteIS1_EEEC2B8ne180100IS2_S4_EEOT_OT0_, symObjAddr: 0x26DC, symBinAddr: 0x1000077A8, symSize: 0x44 }
  - { offset: 0x19180, size: 0x8, addend: 0x0, symName: __ZNSt3__122__compressed_pair_elemIP17__darwin_ucontextLi0ELb0EEC2B8ne180100IS2_vEEOT_, symObjAddr: 0x2720, symBinAddr: 0x1000077EC, symSize: 0x24 }
  - { offset: 0x191C1, size: 0x8, addend: 0x0, symName: __ZNSt3__122__compressed_pair_elemINS_14default_deleteI17__darwin_ucontextEELi1ELb1EEC2B8ne180100IS3_vEEOT_, symObjAddr: 0x2744, symBinAddr: 0x100007810, symSize: 0x18 }
  - { offset: 0x19202, size: 0x8, addend: 0x0, symName: __ZN13ThreadContextC2ENSt3__110unique_ptrI17__darwin_ucontextNS0_14default_deleteIS2_EEEE, symObjAddr: 0x275C, symBinAddr: 0x100007828, symSize: 0x108 }
  - { offset: 0x1923A, size: 0x8, addend: 0x0, symName: __ZNSt3__110shared_ptrINS_5queueINS_10unique_ptrI13ThreadContextNS_14default_deleteIS3_EEEENS_5dequeIS6_NS_9allocatorIS6_EEEEEEEC1B8ne180100Ev, symObjAddr: 0x2864, symBinAddr: 0x100007930, symSize: 0x2C }
  - { offset: 0x19263, size: 0x8, addend: 0x0, symName: __ZNSt3__110shared_ptrIbEC1B8ne180100Ev, symObjAddr: 0x2890, symBinAddr: 0x10000795C, symSize: 0x2C }
  - { offset: 0x1928B, size: 0x8, addend: 0x0, symName: __ZNSt3__110shared_ptrIbEaSB8ne180100EOS1_, symObjAddr: 0x28FC, symBinAddr: 0x1000079C8, symSize: 0x50 }
  - { offset: 0x192BF, size: 0x8, addend: 0x0, symName: __ZNSt3__110shared_ptrIbED1B8ne180100Ev, symObjAddr: 0x294C, symBinAddr: 0x100007A18, symSize: 0x2C }
  - { offset: 0x192E7, size: 0x8, addend: 0x0, symName: __ZNSt3__110shared_ptrINS_5queueINS_10unique_ptrI13ThreadContextNS_14default_deleteIS3_EEEENS_5dequeIS6_NS_9allocatorIS6_EEEEEEEaSB8ne180100EOSC_, symObjAddr: 0x29B0, symBinAddr: 0x100007A7C, symSize: 0x50 }
  - { offset: 0x1931B, size: 0x8, addend: 0x0, symName: __ZNSt3__110shared_ptrINS_5queueINS_10unique_ptrI13ThreadContextNS_14default_deleteIS3_EEEENS_5dequeIS6_NS_9allocatorIS6_EEEEEEED1B8ne180100Ev, symObjAddr: 0x2A00, symBinAddr: 0x100007ACC, symSize: 0x2C }
  - { offset: 0x19344, size: 0x8, addend: 0x0, symName: __ZNSt3__110shared_ptrINS_5queueINS_10unique_ptrI13ThreadContextNS_14default_deleteIS3_EEEENS_5dequeIS6_NS_9allocatorIS6_EEEEEEEC2B8ne180100Ev, symObjAddr: 0x2A2C, symBinAddr: 0x100007AF8, symSize: 0x1C }
  - { offset: 0x1936D, size: 0x8, addend: 0x0, symName: __ZNSt3__110shared_ptrIbEC2B8ne180100Ev, symObjAddr: 0x2A48, symBinAddr: 0x100007B14, symSize: 0x1C }
  - { offset: 0x19396, size: 0x8, addend: 0x0, symName: __ZNSt3__19allocatorIbEC1B8ne180100Ev, symObjAddr: 0x2AFC, symBinAddr: 0x100007BC8, symSize: 0x2C }
  - { offset: 0x1940A, size: 0x8, addend: 0x0, symName: __ZNSt3__118__allocation_guardINS_9allocatorINS_20__shared_ptr_emplaceIbNS1_IbEEEEEEEC1B8ne180100IS3_EET_m, symObjAddr: 0x2B28, symBinAddr: 0x100007BF4, symSize: 0x34 }
  - { offset: 0x19458, size: 0x8, addend: 0x0, symName: __ZNKSt3__118__allocation_guardINS_9allocatorINS_20__shared_ptr_emplaceIbNS1_IbEEEEEEE5__getB8ne180100Ev, symObjAddr: 0x2B5C, symBinAddr: 0x100007C28, symSize: 0x18 }
  - { offset: 0x19482, size: 0x8, addend: 0x0, symName: __ZNSt3__120__shared_ptr_emplaceIbNS_9allocatorIbEEEC1B8ne180100IJbES2_Li0EEES2_DpOT_, symObjAddr: 0x2B74, symBinAddr: 0x100007C40, symSize: 0x34 }
  - { offset: 0x194E4, size: 0x8, addend: 0x0, symName: __ZNSt3__118__allocation_guardINS_9allocatorINS_20__shared_ptr_emplaceIbNS1_IbEEEEEEE13__release_ptrB8ne180100Ev, symObjAddr: 0x2BA8, symBinAddr: 0x100007C74, symSize: 0x24 }
  - { offset: 0x19517, size: 0x8, addend: 0x0, symName: __ZNSt3__110shared_ptrIbE27__create_with_control_blockB8ne180100IbNS_20__shared_ptr_emplaceIbNS_9allocatorIbEEEEEES1_PT_PT0_, symObjAddr: 0x2BCC, symBinAddr: 0x100007C98, symSize: 0xA4 }
  - { offset: 0x1956B, size: 0x8, addend: 0x0, symName: __ZNSt3__120__shared_ptr_emplaceIbNS_9allocatorIbEEE10__get_elemB8ne180100Ev, symObjAddr: 0x2C70, symBinAddr: 0x100007D3C, symSize: 0x28 }
  - { offset: 0x19590, size: 0x8, addend: 0x0, symName: __ZNSt3__118__allocation_guardINS_9allocatorINS_20__shared_ptr_emplaceIbNS1_IbEEEEEEED1B8ne180100Ev, symObjAddr: 0x2C98, symBinAddr: 0x100007D64, symSize: 0x2C }
  - { offset: 0x195B9, size: 0x8, addend: 0x0, symName: __ZNSt3__118__allocation_guardINS_9allocatorINS_20__shared_ptr_emplaceIbNS1_IbEEEEEEEC2B8ne180100IS3_EET_m, symObjAddr: 0x2CC4, symBinAddr: 0x100007D90, symSize: 0x50 }
  - { offset: 0x19607, size: 0x8, addend: 0x0, symName: __ZNSt3__19allocatorINS_20__shared_ptr_emplaceIbNS0_IbEEEEEC1B8ne180100IbEERKNS0_IT_EE, symObjAddr: 0x2D14, symBinAddr: 0x100007DE0, symSize: 0x34 }
  - { offset: 0x19644, size: 0x8, addend: 0x0, symName: __ZNSt3__116allocator_traitsINS_9allocatorINS_20__shared_ptr_emplaceIbNS1_IbEEEEEEE8allocateB8ne180100ERS5_m, symObjAddr: 0x2D48, symBinAddr: 0x100007E14, symSize: 0x2C }
  - { offset: 0x19677, size: 0x8, addend: 0x0, symName: __ZNSt3__19allocatorINS_20__shared_ptr_emplaceIbNS0_IbEEEEEC2B8ne180100IbEERKNS0_IT_EE, symObjAddr: 0x2D74, symBinAddr: 0x100007E40, symSize: 0x30 }
  - { offset: 0x196B4, size: 0x8, addend: 0x0, symName: __ZNSt3__116__non_trivial_ifILb1ENS_9allocatorINS_20__shared_ptr_emplaceIbNS1_IbEEEEEEEC2B8ne180100Ev, symObjAddr: 0x2DA4, symBinAddr: 0x100007E70, symSize: 0x14 }
  - { offset: 0x196DC, size: 0x8, addend: 0x0, symName: __ZNSt3__19allocatorINS_20__shared_ptr_emplaceIbNS0_IbEEEEE8allocateB8ne180100Em, symObjAddr: 0x2DB8, symBinAddr: 0x100007E84, symSize: 0x58 }
  - { offset: 0x19719, size: 0x8, addend: 0x0, symName: __ZNSt3__116allocator_traitsINS_9allocatorINS_20__shared_ptr_emplaceIbNS1_IbEEEEEEE8max_sizeB8ne180100IS5_vEEmRKS5_, symObjAddr: 0x2E10, symBinAddr: 0x100007EDC, symSize: 0x24 }
  - { offset: 0x19747, size: 0x8, addend: 0x0, symName: __ZNKSt3__19allocatorINS_20__shared_ptr_emplaceIbNS0_IbEEEEE8max_sizeB8ne180100Ev, symObjAddr: 0x2E34, symBinAddr: 0x100007F00, symSize: 0x14 }
  - { offset: 0x1976C, size: 0x8, addend: 0x0, symName: __ZNSt3__120__shared_ptr_emplaceIbNS_9allocatorIbEEEC2B8ne180100IJbES2_Li0EEES2_DpOT_, symObjAddr: 0x2E48, symBinAddr: 0x100007F14, symSize: 0xBC }
  - { offset: 0x197EF, size: 0x8, addend: 0x0, symName: __ZNSt3__119__shared_weak_countC2B8ne180100El, symObjAddr: 0x2F04, symBinAddr: 0x100007FD0, symSize: 0x4C }
  - { offset: 0x19826, size: 0x8, addend: 0x0, symName: __ZNSt3__120__shared_ptr_emplaceIbNS_9allocatorIbEEE8_StorageC1B8ne180100EOS2_, symObjAddr: 0x2F50, symBinAddr: 0x10000801C, symSize: 0x34 }
  - { offset: 0x1985D, size: 0x8, addend: 0x0, symName: __ZNSt3__120__shared_ptr_emplaceIbNS_9allocatorIbEEE11__get_allocB8ne180100Ev, symObjAddr: 0x2F84, symBinAddr: 0x100008050, symSize: 0x28 }
  - { offset: 0x19887, size: 0x8, addend: 0x0, symName: __ZNSt3__116allocator_traitsINS_9allocatorIbEEE9constructB8ne180100IbJbEvEEvRS2_PT_DpOT0_, symObjAddr: 0x2FAC, symBinAddr: 0x100008078, symSize: 0x34 }
  - { offset: 0x198DE, size: 0x8, addend: 0x0, symName: __ZNSt3__120__shared_ptr_emplaceIbNS_9allocatorIbEEE8_StorageD1B8ne180100Ev, symObjAddr: 0x2FE0, symBinAddr: 0x1000080AC, symSize: 0x2C }
  - { offset: 0x19906, size: 0x8, addend: 0x0, symName: __ZNSt3__120__shared_ptr_emplaceIbNS_9allocatorIbEEED1Ev, symObjAddr: 0x300C, symBinAddr: 0x1000080D8, symSize: 0x2C }
  - { offset: 0x19930, size: 0x8, addend: 0x0, symName: __ZNSt3__120__shared_ptr_emplaceIbNS_9allocatorIbEEED0Ev, symObjAddr: 0x3038, symBinAddr: 0x100008104, symSize: 0x30 }
  - { offset: 0x1995A, size: 0x8, addend: 0x0, symName: __ZNSt3__120__shared_ptr_emplaceIbNS_9allocatorIbEEE16__on_zero_sharedEv, symObjAddr: 0x3068, symBinAddr: 0x100008134, symSize: 0x24 }
  - { offset: 0x1997E, size: 0x8, addend: 0x0, symName: __ZNSt3__120__shared_ptr_emplaceIbNS_9allocatorIbEEE21__on_zero_shared_weakEv, symObjAddr: 0x308C, symBinAddr: 0x100008158, symSize: 0x5C }
  - { offset: 0x199BE, size: 0x8, addend: 0x0, symName: __ZNSt3__114__shared_countC2B8ne180100El, symObjAddr: 0x30E8, symBinAddr: 0x1000081B4, symSize: 0x30 }
  - { offset: 0x199F5, size: 0x8, addend: 0x0, symName: __ZNSt3__120__shared_ptr_emplaceIbNS_9allocatorIbEEE8_StorageC2B8ne180100EOS2_, symObjAddr: 0x3118, symBinAddr: 0x1000081E4, symSize: 0x30 }
  - { offset: 0x19A2C, size: 0x8, addend: 0x0, symName: __ZNSt3__120__shared_ptr_emplaceIbNS_9allocatorIbEEE8_Storage11__get_allocB8ne180100Ev, symObjAddr: 0x3148, symBinAddr: 0x100008214, symSize: 0x3C }
  - { offset: 0x19A7E, size: 0x8, addend: 0x0, symName: __ZNSt3__117__compressed_pairINS_9allocatorIbEEbE16__get_first_baseB8ne180100EPS3_, symObjAddr: 0x3184, symBinAddr: 0x100008250, symSize: 0x14 }
  - { offset: 0x19AA1, size: 0x8, addend: 0x0, symName: __ZNSt3__19allocatorIbE9constructB8ne180100IbJbEEEvPT_DpOT0_, symObjAddr: 0x3198, symBinAddr: 0x100008264, symSize: 0x2C }
  - { offset: 0x19AF6, size: 0x8, addend: 0x0, symName: __ZNSt3__120__shared_ptr_emplaceIbNS_9allocatorIbEEE8_StorageD2B8ne180100Ev, symObjAddr: 0x31C4, symBinAddr: 0x100008290, symSize: 0x2C }
  - { offset: 0x19B1E, size: 0x8, addend: 0x0, symName: __ZNSt3__120__shared_ptr_emplaceIbNS_9allocatorIbEEED2Ev, symObjAddr: 0x31F0, symBinAddr: 0x1000082BC, symSize: 0x48 }
  - { offset: 0x19B48, size: 0x8, addend: 0x0, symName: __ZNSt3__120__shared_ptr_emplaceIbNS_9allocatorIbEEE21__on_zero_shared_implB8ne180100IS2_Li0EEEvv, symObjAddr: 0x3238, symBinAddr: 0x100008304, symSize: 0x44 }
  - { offset: 0x19B98, size: 0x8, addend: 0x0, symName: __ZNSt3__116allocator_traitsINS_9allocatorIbEEE7destroyB8ne180100IbvEEvRS2_PT_, symObjAddr: 0x327C, symBinAddr: 0x100008348, symSize: 0x2C }
  - { offset: 0x19BD5, size: 0x8, addend: 0x0, symName: __ZNSt3__19allocatorIbE7destroyB8ne180100EPb, symObjAddr: 0x32A8, symBinAddr: 0x100008374, symSize: 0x14 }
  - { offset: 0x19C08, size: 0x8, addend: 0x0, symName: __ZNSt3__116allocator_traitsINS_9allocatorINS_20__shared_ptr_emplaceIbNS1_IbEEEEEEE10deallocateB8ne180100ERS5_PS4_m, symObjAddr: 0x32BC, symBinAddr: 0x100008388, symSize: 0x34 }
  - { offset: 0x19C4A, size: 0x8, addend: 0x0, symName: __ZNSt3__114pointer_traitsIPNS_20__shared_ptr_emplaceIbNS_9allocatorIbEEEEE10pointer_toB8ne180100ERS4_, symObjAddr: 0x32F0, symBinAddr: 0x1000083BC, symSize: 0x14 }
  - { offset: 0x19C6C, size: 0x8, addend: 0x0, symName: __ZNSt3__19allocatorINS_20__shared_ptr_emplaceIbNS0_IbEEEEE10deallocateB8ne180100EPS3_m, symObjAddr: 0x3304, symBinAddr: 0x1000083D0, symSize: 0x40 }
  - { offset: 0x19CAD, size: 0x8, addend: 0x0, symName: __ZNSt3__110shared_ptrIbE18__enable_weak_thisB8ne180100Ez, symObjAddr: 0x3344, symBinAddr: 0x100008410, symSize: 0x10 }
  - { offset: 0x19CD2, size: 0x8, addend: 0x0, symName: __ZNSt3__120__shared_ptr_emplaceIbNS_9allocatorIbEEE8_Storage10__get_elemB8ne180100Ev, symObjAddr: 0x3354, symBinAddr: 0x100008420, symSize: 0x3C }
  - { offset: 0x19D24, size: 0x8, addend: 0x0, symName: __ZNSt3__117__compressed_pairINS_9allocatorIbEEbE17__get_second_baseB8ne180100EPS3_, symObjAddr: 0x3390, symBinAddr: 0x10000845C, symSize: 0x14 }
  - { offset: 0x19D47, size: 0x8, addend: 0x0, symName: __ZNSt3__118__allocation_guardINS_9allocatorINS_20__shared_ptr_emplaceIbNS1_IbEEEEEEED2B8ne180100Ev, symObjAddr: 0x33A4, symBinAddr: 0x100008470, symSize: 0x2C }
  - { offset: 0x19D6F, size: 0x8, addend: 0x0, symName: __ZNSt3__118__allocation_guardINS_9allocatorINS_20__shared_ptr_emplaceIbNS1_IbEEEEEEE9__destroyB8ne180100Ev, symObjAddr: 0x33D0, symBinAddr: 0x10000849C, symSize: 0x4C }
  - { offset: 0x19D94, size: 0x8, addend: 0x0, symName: __ZNSt3__19allocatorIbEC2B8ne180100Ev, symObjAddr: 0x341C, symBinAddr: 0x1000084E8, symSize: 0x2C }
  - { offset: 0x19DBD, size: 0x8, addend: 0x0, symName: __ZNSt3__116__non_trivial_ifILb1ENS_9allocatorIbEEEC2B8ne180100Ev, symObjAddr: 0x3448, symBinAddr: 0x100008514, symSize: 0x14 }
  - { offset: 0x19DE6, size: 0x8, addend: 0x0, symName: __ZNSt3__110shared_ptrIbEC1B8ne180100EOS1_, symObjAddr: 0x345C, symBinAddr: 0x100008528, symSize: 0x34 }
  - { offset: 0x19E1D, size: 0x8, addend: 0x0, symName: __ZNSt3__110shared_ptrIbE4swapB8ne180100ERS1_, symObjAddr: 0x3490, symBinAddr: 0x10000855C, symSize: 0x44 }
  - { offset: 0x19E51, size: 0x8, addend: 0x0, symName: __ZNSt3__110shared_ptrIbEC2B8ne180100EOS1_, symObjAddr: 0x34D4, symBinAddr: 0x1000085A0, symSize: 0x40 }
  - { offset: 0x19E89, size: 0x8, addend: 0x0, symName: __ZNSt3__110shared_ptrIbED2B8ne180100Ev, symObjAddr: 0x358C, symBinAddr: 0x100008658, symSize: 0x54 }
  - { offset: 0x19EB1, size: 0x8, addend: 0x0, symName: __ZNSt3__119__shared_weak_count16__release_sharedB8ne180100Ev, symObjAddr: 0x35E0, symBinAddr: 0x1000086AC, symSize: 0x3C }
  - { offset: 0x19ED5, size: 0x8, addend: 0x0, symName: __ZNSt3__114__shared_count16__release_sharedB8ne180100Ev, symObjAddr: 0x361C, symBinAddr: 0x1000086E8, symSize: 0x7C }
  - { offset: 0x19EFA, size: 0x8, addend: 0x0, symName: __ZNSt3__19allocatorINS_5queueINS_10unique_ptrI13ThreadContextNS_14default_deleteIS3_EEEENS_5dequeIS6_NS0_IS6_EEEEEEEC1B8ne180100Ev, symObjAddr: 0x3758, symBinAddr: 0x100008824, symSize: 0x2C }
  - { offset: 0x19F6E, size: 0x8, addend: 0x0, symName: __ZNSt3__118__allocation_guardINS_9allocatorINS_20__shared_ptr_emplaceINS_5queueINS_10unique_ptrI13ThreadContextNS_14default_deleteIS5_EEEENS_5dequeIS8_NS1_IS8_EEEEEENS1_ISC_EEEEEEEC1B8ne180100ISD_EET_m, symObjAddr: 0x3784, symBinAddr: 0x100008850, symSize: 0x34 }
  - { offset: 0x19FBC, size: 0x8, addend: 0x0, symName: __ZNKSt3__118__allocation_guardINS_9allocatorINS_20__shared_ptr_emplaceINS_5queueINS_10unique_ptrI13ThreadContextNS_14default_deleteIS5_EEEENS_5dequeIS8_NS1_IS8_EEEEEENS1_ISC_EEEEEEE5__getB8ne180100Ev, symObjAddr: 0x37B8, symBinAddr: 0x100008884, symSize: 0x18 }
  - { offset: 0x19FE1, size: 0x8, addend: 0x0, symName: __ZNSt3__120__shared_ptr_emplaceINS_5queueINS_10unique_ptrI13ThreadContextNS_14default_deleteIS3_EEEENS_5dequeIS6_NS_9allocatorIS6_EEEEEENS8_ISB_EEEC1B8ne180100IJESC_Li0EEESC_DpOT_, symObjAddr: 0x37D0, symBinAddr: 0x10000889C, symSize: 0x2C }
  - { offset: 0x1A02E, size: 0x8, addend: 0x0, symName: __ZNSt3__118__allocation_guardINS_9allocatorINS_20__shared_ptr_emplaceINS_5queueINS_10unique_ptrI13ThreadContextNS_14default_deleteIS5_EEEENS_5dequeIS8_NS1_IS8_EEEEEENS1_ISC_EEEEEEE13__release_ptrB8ne180100Ev, symObjAddr: 0x37FC, symBinAddr: 0x1000088C8, symSize: 0x24 }
  - { offset: 0x1A061, size: 0x8, addend: 0x0, symName: __ZNSt3__110shared_ptrINS_5queueINS_10unique_ptrI13ThreadContextNS_14default_deleteIS3_EEEENS_5dequeIS6_NS_9allocatorIS6_EEEEEEE27__create_with_control_blockB8ne180100ISB_NS_20__shared_ptr_emplaceISB_NS8_ISB_EEEEEESC_PT_PT0_, symObjAddr: 0x3820, symBinAddr: 0x1000088EC, symSize: 0xA4 }
  - { offset: 0x1A0B5, size: 0x8, addend: 0x0, symName: __ZNSt3__120__shared_ptr_emplaceINS_5queueINS_10unique_ptrI13ThreadContextNS_14default_deleteIS3_EEEENS_5dequeIS6_NS_9allocatorIS6_EEEEEENS8_ISB_EEE10__get_elemB8ne180100Ev, symObjAddr: 0x38C4, symBinAddr: 0x100008990, symSize: 0x28 }
  - { offset: 0x1A0DA, size: 0x8, addend: 0x0, symName: __ZNSt3__118__allocation_guardINS_9allocatorINS_20__shared_ptr_emplaceINS_5queueINS_10unique_ptrI13ThreadContextNS_14default_deleteIS5_EEEENS_5dequeIS8_NS1_IS8_EEEEEENS1_ISC_EEEEEEED1B8ne180100Ev, symObjAddr: 0x38EC, symBinAddr: 0x1000089B8, symSize: 0x2C }
  - { offset: 0x1A103, size: 0x8, addend: 0x0, symName: __ZNSt3__118__allocation_guardINS_9allocatorINS_20__shared_ptr_emplaceINS_5queueINS_10unique_ptrI13ThreadContextNS_14default_deleteIS5_EEEENS_5dequeIS8_NS1_IS8_EEEEEENS1_ISC_EEEEEEEC2B8ne180100ISD_EET_m, symObjAddr: 0x3918, symBinAddr: 0x1000089E4, symSize: 0x50 }
  - { offset: 0x1A151, size: 0x8, addend: 0x0, symName: __ZNSt3__19allocatorINS_20__shared_ptr_emplaceINS_5queueINS_10unique_ptrI13ThreadContextNS_14default_deleteIS4_EEEENS_5dequeIS7_NS0_IS7_EEEEEENS0_ISB_EEEEEC1B8ne180100ISB_EERKNS0_IT_EE, symObjAddr: 0x3968, symBinAddr: 0x100008A34, symSize: 0x34 }
  - { offset: 0x1A18E, size: 0x8, addend: 0x0, symName: __ZNSt3__116allocator_traitsINS_9allocatorINS_20__shared_ptr_emplaceINS_5queueINS_10unique_ptrI13ThreadContextNS_14default_deleteIS5_EEEENS_5dequeIS8_NS1_IS8_EEEEEENS1_ISC_EEEEEEE8allocateB8ne180100ERSF_m, symObjAddr: 0x399C, symBinAddr: 0x100008A68, symSize: 0x2C }
  - { offset: 0x1A1C1, size: 0x8, addend: 0x0, symName: __ZNSt3__19allocatorINS_20__shared_ptr_emplaceINS_5queueINS_10unique_ptrI13ThreadContextNS_14default_deleteIS4_EEEENS_5dequeIS7_NS0_IS7_EEEEEENS0_ISB_EEEEEC2B8ne180100ISB_EERKNS0_IT_EE, symObjAddr: 0x39C8, symBinAddr: 0x100008A94, symSize: 0x30 }
  - { offset: 0x1A1FE, size: 0x8, addend: 0x0, symName: __ZNSt3__116__non_trivial_ifILb1ENS_9allocatorINS_20__shared_ptr_emplaceINS_5queueINS_10unique_ptrI13ThreadContextNS_14default_deleteIS5_EEEENS_5dequeIS8_NS1_IS8_EEEEEENS1_ISC_EEEEEEEC2B8ne180100Ev, symObjAddr: 0x39F8, symBinAddr: 0x100008AC4, symSize: 0x14 }
  - { offset: 0x1A226, size: 0x8, addend: 0x0, symName: __ZNSt3__19allocatorINS_20__shared_ptr_emplaceINS_5queueINS_10unique_ptrI13ThreadContextNS_14default_deleteIS4_EEEENS_5dequeIS7_NS0_IS7_EEEEEENS0_ISB_EEEEE8allocateB8ne180100Em, symObjAddr: 0x3A0C, symBinAddr: 0x100008AD8, symSize: 0x5C }
  - { offset: 0x1A263, size: 0x8, addend: 0x0, symName: __ZNSt3__116allocator_traitsINS_9allocatorINS_20__shared_ptr_emplaceINS_5queueINS_10unique_ptrI13ThreadContextNS_14default_deleteIS5_EEEENS_5dequeIS8_NS1_IS8_EEEEEENS1_ISC_EEEEEEE8max_sizeB8ne180100ISF_vEEmRKSF_, symObjAddr: 0x3A68, symBinAddr: 0x100008B34, symSize: 0x24 }
  - { offset: 0x1A291, size: 0x8, addend: 0x0, symName: __ZNKSt3__19allocatorINS_20__shared_ptr_emplaceINS_5queueINS_10unique_ptrI13ThreadContextNS_14default_deleteIS4_EEEENS_5dequeIS7_NS0_IS7_EEEEEENS0_ISB_EEEEE8max_sizeB8ne180100Ev, symObjAddr: 0x3A8C, symBinAddr: 0x100008B58, symSize: 0x20 }
  - { offset: 0x1A2B6, size: 0x8, addend: 0x0, symName: __ZNSt3__120__shared_ptr_emplaceINS_5queueINS_10unique_ptrI13ThreadContextNS_14default_deleteIS3_EEEENS_5dequeIS6_NS_9allocatorIS6_EEEEEENS8_ISB_EEEC2B8ne180100IJESC_Li0EEESC_DpOT_, symObjAddr: 0x3AAC, symBinAddr: 0x100008B78, symSize: 0xB4 }
  - { offset: 0x1A324, size: 0x8, addend: 0x0, symName: __ZNSt3__120__shared_ptr_emplaceINS_5queueINS_10unique_ptrI13ThreadContextNS_14default_deleteIS3_EEEENS_5dequeIS6_NS_9allocatorIS6_EEEEEENS8_ISB_EEE8_StorageC1B8ne180100EOSC_, symObjAddr: 0x3B60, symBinAddr: 0x100008C2C, symSize: 0x34 }
  - { offset: 0x1A35B, size: 0x8, addend: 0x0, symName: __ZNSt3__120__shared_ptr_emplaceINS_5queueINS_10unique_ptrI13ThreadContextNS_14default_deleteIS3_EEEENS_5dequeIS6_NS_9allocatorIS6_EEEEEENS8_ISB_EEE11__get_allocB8ne180100Ev, symObjAddr: 0x3B94, symBinAddr: 0x100008C60, symSize: 0x28 }
  - { offset: 0x1A385, size: 0x8, addend: 0x0, symName: __ZNSt3__116allocator_traitsINS_9allocatorINS_5queueINS_10unique_ptrI13ThreadContextNS_14default_deleteIS4_EEEENS_5dequeIS7_NS1_IS7_EEEEEEEEE9constructB8ne180100ISB_JEvEEvRSC_PT_DpOT0_, symObjAddr: 0x3BBC, symBinAddr: 0x100008C88, symSize: 0x2C }
  - { offset: 0x1A3C7, size: 0x8, addend: 0x0, symName: __ZNSt3__120__shared_ptr_emplaceINS_5queueINS_10unique_ptrI13ThreadContextNS_14default_deleteIS3_EEEENS_5dequeIS6_NS_9allocatorIS6_EEEEEENS8_ISB_EEE8_StorageD1B8ne180100Ev, symObjAddr: 0x3BE8, symBinAddr: 0x100008CB4, symSize: 0x2C }
  - { offset: 0x1A3EF, size: 0x8, addend: 0x0, symName: __ZNSt3__120__shared_ptr_emplaceINS_5queueINS_10unique_ptrI13ThreadContextNS_14default_deleteIS3_EEEENS_5dequeIS6_NS_9allocatorIS6_EEEEEENS8_ISB_EEED1Ev, symObjAddr: 0x3C14, symBinAddr: 0x100008CE0, symSize: 0x2C }
  - { offset: 0x1A419, size: 0x8, addend: 0x0, symName: __ZNSt3__120__shared_ptr_emplaceINS_5queueINS_10unique_ptrI13ThreadContextNS_14default_deleteIS3_EEEENS_5dequeIS6_NS_9allocatorIS6_EEEEEENS8_ISB_EEED0Ev, symObjAddr: 0x3C40, symBinAddr: 0x100008D0C, symSize: 0x30 }
  - { offset: 0x1A443, size: 0x8, addend: 0x0, symName: __ZNSt3__120__shared_ptr_emplaceINS_5queueINS_10unique_ptrI13ThreadContextNS_14default_deleteIS3_EEEENS_5dequeIS6_NS_9allocatorIS6_EEEEEENS8_ISB_EEE16__on_zero_sharedEv, symObjAddr: 0x3C70, symBinAddr: 0x100008D3C, symSize: 0x24 }
  - { offset: 0x1A467, size: 0x8, addend: 0x0, symName: __ZNSt3__120__shared_ptr_emplaceINS_5queueINS_10unique_ptrI13ThreadContextNS_14default_deleteIS3_EEEENS_5dequeIS6_NS_9allocatorIS6_EEEEEENS8_ISB_EEE21__on_zero_shared_weakEv, symObjAddr: 0x3C94, symBinAddr: 0x100008D60, symSize: 0x5C }
  - { offset: 0x1A4A7, size: 0x8, addend: 0x0, symName: __ZNSt3__120__shared_ptr_emplaceINS_5queueINS_10unique_ptrI13ThreadContextNS_14default_deleteIS3_EEEENS_5dequeIS6_NS_9allocatorIS6_EEEEEENS8_ISB_EEE8_StorageC2B8ne180100EOSC_, symObjAddr: 0x3CF0, symBinAddr: 0x100008DBC, symSize: 0x30 }
  - { offset: 0x1A4DE, size: 0x8, addend: 0x0, symName: __ZNSt3__120__shared_ptr_emplaceINS_5queueINS_10unique_ptrI13ThreadContextNS_14default_deleteIS3_EEEENS_5dequeIS6_NS_9allocatorIS6_EEEEEENS8_ISB_EEE8_Storage11__get_allocB8ne180100Ev, symObjAddr: 0x3D20, symBinAddr: 0x100008DEC, symSize: 0x3C }
  - { offset: 0x1A530, size: 0x8, addend: 0x0, symName: __ZNSt3__117__compressed_pairINS_9allocatorINS_5queueINS_10unique_ptrI13ThreadContextNS_14default_deleteIS4_EEEENS_5dequeIS7_NS1_IS7_EEEEEEEESB_E16__get_first_baseB8ne180100EPSD_, symObjAddr: 0x3D5C, symBinAddr: 0x100008E28, symSize: 0x14 }
  - { offset: 0x1A552, size: 0x8, addend: 0x0, symName: __ZNSt3__19allocatorINS_5queueINS_10unique_ptrI13ThreadContextNS_14default_deleteIS3_EEEENS_5dequeIS6_NS0_IS6_EEEEEEE9constructB8ne180100ISA_JEEEvPT_DpOT0_, symObjAddr: 0x3D70, symBinAddr: 0x100008E3C, symSize: 0x28 }
  - { offset: 0x1A593, size: 0x8, addend: 0x0, symName: __ZNSt3__15queueINS_10unique_ptrI13ThreadContextNS_14default_deleteIS2_EEEENS_5dequeIS5_NS_9allocatorIS5_EEEEEC1B8ne180100Ev, symObjAddr: 0x3D98, symBinAddr: 0x100008E64, symSize: 0x2C }
  - { offset: 0x1A5BC, size: 0x8, addend: 0x0, symName: __ZNSt3__15queueINS_10unique_ptrI13ThreadContextNS_14default_deleteIS2_EEEENS_5dequeIS5_NS_9allocatorIS5_EEEEEC2B8ne180100Ev, symObjAddr: 0x3DC4, symBinAddr: 0x100008E90, symSize: 0x2C }
  - { offset: 0x1A5E5, size: 0x8, addend: 0x0, symName: __ZNSt3__15dequeINS_10unique_ptrI13ThreadContextNS_14default_deleteIS2_EEEENS_9allocatorIS5_EEEC1B8ne180100Ev, symObjAddr: 0x3DF0, symBinAddr: 0x100008EBC, symSize: 0x2C }
  - { offset: 0x1A60E, size: 0x8, addend: 0x0, symName: __ZNSt3__15dequeINS_10unique_ptrI13ThreadContextNS_14default_deleteIS2_EEEENS_9allocatorIS5_EEEC2B8ne180100Ev, symObjAddr: 0x3E1C, symBinAddr: 0x100008EE8, symSize: 0x5C }
  - { offset: 0x1A637, size: 0x8, addend: 0x0, symName: __ZNSt3__114__split_bufferIPNS_10unique_ptrI13ThreadContextNS_14default_deleteIS2_EEEENS_9allocatorIS6_EEEC1B8ne180100Ev, symObjAddr: 0x3E78, symBinAddr: 0x100008F44, symSize: 0x2C }
  - { offset: 0x1A66A, size: 0x8, addend: 0x0, symName: __ZNSt3__117__compressed_pairImNS_9allocatorINS_10unique_ptrI13ThreadContextNS_14default_deleteIS3_EEEEEEEC1B8ne180100IiNS_18__default_init_tagEEEOT_OT0_, symObjAddr: 0x3EA4, symBinAddr: 0x100008F70, symSize: 0x3C }
  - { offset: 0x1A6C1, size: 0x8, addend: 0x0, symName: __ZNKSt3__15dequeINS_10unique_ptrI13ThreadContextNS_14default_deleteIS2_EEEENS_9allocatorIS5_EEE14__annotate_newB8ne180100Em, symObjAddr: 0x3EE0, symBinAddr: 0x100008FAC, symSize: 0x14 }
  - { offset: 0x1A6F5, size: 0x8, addend: 0x0, symName: __ZNSt3__114__split_bufferIPNS_10unique_ptrI13ThreadContextNS_14default_deleteIS2_EEEENS_9allocatorIS6_EEEC2B8ne180100Ev, symObjAddr: 0x3EF4, symBinAddr: 0x100008FC0, symSize: 0x50 }
  - { offset: 0x1A71E, size: 0x8, addend: 0x0, symName: __ZNSt3__117__compressed_pairIPPNS_10unique_ptrI13ThreadContextNS_14default_deleteIS2_EEEENS_9allocatorIS6_EEEC1B8ne180100IDnNS_18__default_init_tagEEEOT_OT0_, symObjAddr: 0x3F44, symBinAddr: 0x100009010, symSize: 0x3C }
  - { offset: 0x1A775, size: 0x8, addend: 0x0, symName: __ZNSt3__117__compressed_pairIPPNS_10unique_ptrI13ThreadContextNS_14default_deleteIS2_EEEENS_9allocatorIS6_EEEC2B8ne180100IDnNS_18__default_init_tagEEEOT_OT0_, symObjAddr: 0x3F80, symBinAddr: 0x10000904C, symSize: 0x40 }
  - { offset: 0x1A7CC, size: 0x8, addend: 0x0, symName: __ZNSt3__122__compressed_pair_elemIPPNS_10unique_ptrI13ThreadContextNS_14default_deleteIS2_EEEELi0ELb0EEC2B8ne180100IDnvEEOT_, symObjAddr: 0x3FC0, symBinAddr: 0x10000908C, symSize: 0x1C }
  - { offset: 0x1A80D, size: 0x8, addend: 0x0, symName: __ZNSt3__122__compressed_pair_elemINS_9allocatorIPNS_10unique_ptrI13ThreadContextNS_14default_deleteIS3_EEEEEELi1ELb1EEC2B8ne180100ENS_18__default_init_tagE, symObjAddr: 0x3FDC, symBinAddr: 0x1000090A8, symSize: 0x2C }
  - { offset: 0x1A841, size: 0x8, addend: 0x0, symName: __ZNSt3__19allocatorIPNS_10unique_ptrI13ThreadContextNS_14default_deleteIS2_EEEEEC2B8ne180100Ev, symObjAddr: 0x4008, symBinAddr: 0x1000090D4, symSize: 0x2C }
  - { offset: 0x1A86A, size: 0x8, addend: 0x0, symName: __ZNSt3__116__non_trivial_ifILb1ENS_9allocatorIPNS_10unique_ptrI13ThreadContextNS_14default_deleteIS3_EEEEEEEC2B8ne180100Ev, symObjAddr: 0x4034, symBinAddr: 0x100009100, symSize: 0x14 }
  - { offset: 0x1A893, size: 0x8, addend: 0x0, symName: __ZNSt3__117__compressed_pairImNS_9allocatorINS_10unique_ptrI13ThreadContextNS_14default_deleteIS3_EEEEEEEC2B8ne180100IiNS_18__default_init_tagEEEOT_OT0_, symObjAddr: 0x4048, symBinAddr: 0x100009114, symSize: 0x40 }
  - { offset: 0x1A8EA, size: 0x8, addend: 0x0, symName: __ZNSt3__122__compressed_pair_elemImLi0ELb0EEC2B8ne180100IivEEOT_, symObjAddr: 0x4088, symBinAddr: 0x100009154, symSize: 0x24 }
  - { offset: 0x1A92B, size: 0x8, addend: 0x0, symName: __ZNSt3__122__compressed_pair_elemINS_9allocatorINS_10unique_ptrI13ThreadContextNS_14default_deleteIS3_EEEEEELi1ELb1EEC2B8ne180100ENS_18__default_init_tagE, symObjAddr: 0x40AC, symBinAddr: 0x100009178, symSize: 0x2C }
  - { offset: 0x1A95F, size: 0x8, addend: 0x0, symName: __ZNSt3__19allocatorINS_10unique_ptrI13ThreadContextNS_14default_deleteIS2_EEEEEC2B8ne180100Ev, symObjAddr: 0x40D8, symBinAddr: 0x1000091A4, symSize: 0x2C }
  - { offset: 0x1A988, size: 0x8, addend: 0x0, symName: __ZNSt3__116__non_trivial_ifILb1ENS_9allocatorINS_10unique_ptrI13ThreadContextNS_14default_deleteIS3_EEEEEEEC2B8ne180100Ev, symObjAddr: 0x4104, symBinAddr: 0x1000091D0, symSize: 0x14 }
  - { offset: 0x1A9B1, size: 0x8, addend: 0x0, symName: __ZNSt3__120__shared_ptr_emplaceINS_5queueINS_10unique_ptrI13ThreadContextNS_14default_deleteIS3_EEEENS_5dequeIS6_NS_9allocatorIS6_EEEEEENS8_ISB_EEE8_StorageD2B8ne180100Ev, symObjAddr: 0x4118, symBinAddr: 0x1000091E4, symSize: 0x2C }
  - { offset: 0x1A9D9, size: 0x8, addend: 0x0, symName: __ZNSt3__120__shared_ptr_emplaceINS_5queueINS_10unique_ptrI13ThreadContextNS_14default_deleteIS3_EEEENS_5dequeIS6_NS_9allocatorIS6_EEEEEENS8_ISB_EEED2Ev, symObjAddr: 0x4144, symBinAddr: 0x100009210, symSize: 0x48 }
  - { offset: 0x1AA03, size: 0x8, addend: 0x0, symName: __ZNSt3__120__shared_ptr_emplaceINS_5queueINS_10unique_ptrI13ThreadContextNS_14default_deleteIS3_EEEENS_5dequeIS6_NS_9allocatorIS6_EEEEEENS8_ISB_EEE21__on_zero_shared_implB8ne180100ISC_Li0EEEvv, symObjAddr: 0x418C, symBinAddr: 0x100009258, symSize: 0x44 }
  - { offset: 0x1AA53, size: 0x8, addend: 0x0, symName: __ZNSt3__116allocator_traitsINS_9allocatorINS_5queueINS_10unique_ptrI13ThreadContextNS_14default_deleteIS4_EEEENS_5dequeIS7_NS1_IS7_EEEEEEEEE7destroyB8ne180100ISB_vEEvRSC_PT_, symObjAddr: 0x41D0, symBinAddr: 0x10000929C, symSize: 0x2C }
  - { offset: 0x1AA8F, size: 0x8, addend: 0x0, symName: __ZNSt3__19allocatorINS_5queueINS_10unique_ptrI13ThreadContextNS_14default_deleteIS3_EEEENS_5dequeIS6_NS0_IS6_EEEEEEE7destroyB8ne180100EPSA_, symObjAddr: 0x41FC, symBinAddr: 0x1000092C8, symSize: 0x28 }
  - { offset: 0x1AAC2, size: 0x8, addend: 0x0, symName: __ZNSt3__15dequeINS_10unique_ptrI13ThreadContextNS_14default_deleteIS2_EEEENS_9allocatorIS5_EEED1B8ne180100Ev, symObjAddr: 0x427C, symBinAddr: 0x1000092F0, symSize: 0x2C }
  - { offset: 0x1AAEB, size: 0x8, addend: 0x0, symName: __ZNSt3__15dequeINS_10unique_ptrI13ThreadContextNS_14default_deleteIS2_EEEENS_9allocatorIS5_EEED2B8ne180100Ev, symObjAddr: 0x42A8, symBinAddr: 0x10000931C, symSize: 0xA4 }
  - { offset: 0x1AB40, size: 0x8, addend: 0x0, symName: __ZNSt3__15dequeINS_10unique_ptrI13ThreadContextNS_14default_deleteIS2_EEEENS_9allocatorIS5_EEE5clearEv, symObjAddr: 0x434C, symBinAddr: 0x1000093C0, symSize: 0x194 }
  - { offset: 0x1AB9A, size: 0x8, addend: 0x0, symName: __ZNKSt3__15dequeINS_10unique_ptrI13ThreadContextNS_14default_deleteIS2_EEEENS_9allocatorIS5_EEE17__annotate_deleteB8ne180100Ev, symObjAddr: 0x44E0, symBinAddr: 0x100009554, symSize: 0x10 }
  - { offset: 0x1ABBF, size: 0x8, addend: 0x0, symName: __ZNSt3__114__split_bufferIPNS_10unique_ptrI13ThreadContextNS_14default_deleteIS2_EEEENS_9allocatorIS6_EEE5beginB8ne180100Ev, symObjAddr: 0x44F0, symBinAddr: 0x100009564, symSize: 0x18 }
  - { offset: 0x1ABE4, size: 0x8, addend: 0x0, symName: __ZNSt3__114__split_bufferIPNS_10unique_ptrI13ThreadContextNS_14default_deleteIS2_EEEENS_9allocatorIS6_EEE3endB8ne180100Ev, symObjAddr: 0x4508, symBinAddr: 0x10000957C, symSize: 0x18 }
  - { offset: 0x1AC09, size: 0x8, addend: 0x0, symName: __ZNSt3__116allocator_traitsINS_9allocatorINS_10unique_ptrI13ThreadContextNS_14default_deleteIS3_EEEEEEE10deallocateB8ne180100ERS7_PS6_m, symObjAddr: 0x4520, symBinAddr: 0x100009594, symSize: 0x34 }
  - { offset: 0x1AC4A, size: 0x8, addend: 0x0, symName: __ZNSt3__15dequeINS_10unique_ptrI13ThreadContextNS_14default_deleteIS2_EEEENS_9allocatorIS5_EEE7__allocB8ne180100Ev, symObjAddr: 0x4554, symBinAddr: 0x1000095C8, symSize: 0x28 }
  - { offset: 0x1AC6F, size: 0x8, addend: 0x0, symName: __ZNSt3__114__split_bufferIPNS_10unique_ptrI13ThreadContextNS_14default_deleteIS2_EEEENS_9allocatorIS6_EEED1Ev, symObjAddr: 0x457C, symBinAddr: 0x1000095F0, symSize: 0x2C }
  - { offset: 0x1AC99, size: 0x8, addend: 0x0, symName: __ZNSt3__15dequeINS_10unique_ptrI13ThreadContextNS_14default_deleteIS2_EEEENS_9allocatorIS5_EEE5beginB8ne180100Ev, symObjAddr: 0x45A8, symBinAddr: 0x10000961C, symSize: 0xB8 }
  - { offset: 0x1ACCC, size: 0x8, addend: 0x0, symName: __ZNSt3__15dequeINS_10unique_ptrI13ThreadContextNS_14default_deleteIS2_EEEENS_9allocatorIS5_EEE3endB8ne180100Ev, symObjAddr: 0x4660, symBinAddr: 0x1000096D4, symSize: 0xBC }
  - { offset: 0x1AD0F, size: 0x8, addend: 0x0, symName: __ZNKSt3__116__deque_iteratorINS_10unique_ptrI13ThreadContextNS_14default_deleteIS2_EEEEPS5_RS5_PS6_lLl512EEdeB8ne180100Ev, symObjAddr: 0x477C, symBinAddr: 0x1000097C4, symSize: 0x18 }
  - { offset: 0x1AD34, size: 0x8, addend: 0x0, symName: __ZNSt3__116__deque_iteratorINS_10unique_ptrI13ThreadContextNS_14default_deleteIS2_EEEEPS5_RS5_PS6_lLl512EEppB8ne180100Ev, symObjAddr: 0x4794, symBinAddr: 0x1000097DC, symSize: 0x70 }
  - { offset: 0x1AD58, size: 0x8, addend: 0x0, symName: __ZNSt3__15dequeINS_10unique_ptrI13ThreadContextNS_14default_deleteIS2_EEEENS_9allocatorIS5_EEE6__sizeB8ne180100Ev, symObjAddr: 0x4804, symBinAddr: 0x10000984C, symSize: 0x28 }
  - { offset: 0x1AD7D, size: 0x8, addend: 0x0, symName: __ZNKSt3__114__split_bufferIPNS_10unique_ptrI13ThreadContextNS_14default_deleteIS2_EEEENS_9allocatorIS6_EEE4sizeB8ne180100Ev, symObjAddr: 0x482C, symBinAddr: 0x100009874, symSize: 0x28 }
  - { offset: 0x1ADA2, size: 0x8, addend: 0x0, symName: __ZNSt3__114__split_bufferIPNS_10unique_ptrI13ThreadContextNS_14default_deleteIS2_EEEENS_9allocatorIS6_EEE5frontB8ne180100Ev, symObjAddr: 0x4854, symBinAddr: 0x10000989C, symSize: 0x18 }
  - { offset: 0x1ADC6, size: 0x8, addend: 0x0, symName: __ZNSt3__114__split_bufferIPNS_10unique_ptrI13ThreadContextNS_14default_deleteIS2_EEEENS_9allocatorIS6_EEE9pop_frontB8ne180100Ev, symObjAddr: 0x486C, symBinAddr: 0x1000098B4, symSize: 0x2C }
  - { offset: 0x1ADEB, size: 0x8, addend: 0x0, symName: __ZNKSt3__114__split_bufferIPNS_10unique_ptrI13ThreadContextNS_14default_deleteIS2_EEEENS_9allocatorIS6_EEE5emptyB8ne180100Ev, symObjAddr: 0x4898, symBinAddr: 0x1000098E0, symSize: 0x28 }
  - { offset: 0x1AE10, size: 0x8, addend: 0x0, symName: __ZNSt3__116__deque_iteratorINS_10unique_ptrI13ThreadContextNS_14default_deleteIS2_EEEEPS5_RS5_PS6_lLl512EEC1B8ne180100ES8_S6_, symObjAddr: 0x48C0, symBinAddr: 0x100009908, symSize: 0x3C }
  - { offset: 0x1AE57, size: 0x8, addend: 0x0, symName: __ZNSt3__116__deque_iteratorINS_10unique_ptrI13ThreadContextNS_14default_deleteIS2_EEEEPS5_RS5_PS6_lLl512EEC2B8ne180100ES8_S6_, symObjAddr: 0x48FC, symBinAddr: 0x100009944, symSize: 0x2C }
  - { offset: 0x1AE9D, size: 0x8, addend: 0x0, symName: __ZNKSt3__15dequeINS_10unique_ptrI13ThreadContextNS_14default_deleteIS2_EEEENS_9allocatorIS5_EEE4sizeB8ne180100Ev, symObjAddr: 0x4928, symBinAddr: 0x100009970, symSize: 0x28 }
  - { offset: 0x1AEC1, size: 0x8, addend: 0x0, symName: __ZNKSt3__15dequeINS_10unique_ptrI13ThreadContextNS_14default_deleteIS2_EEEENS_9allocatorIS5_EEE6__sizeB8ne180100Ev, symObjAddr: 0x4950, symBinAddr: 0x100009998, symSize: 0x28 }
  - { offset: 0x1AEE5, size: 0x8, addend: 0x0, symName: __ZNKSt3__117__compressed_pairImNS_9allocatorINS_10unique_ptrI13ThreadContextNS_14default_deleteIS3_EEEEEEE5firstB8ne180100Ev, symObjAddr: 0x4978, symBinAddr: 0x1000099C0, symSize: 0x24 }
  - { offset: 0x1AF0A, size: 0x8, addend: 0x0, symName: __ZNKSt3__122__compressed_pair_elemImLi0ELb0EE5__getB8ne180100Ev, symObjAddr: 0x499C, symBinAddr: 0x1000099E4, symSize: 0x14 }
  - { offset: 0x1AF2E, size: 0x8, addend: 0x0, symName: __ZNSt3__19allocatorINS_10unique_ptrI13ThreadContextNS_14default_deleteIS2_EEEEE7destroyB8ne180100EPS5_, symObjAddr: 0x49E0, symBinAddr: 0x100009A28, symSize: 0x28 }
  - { offset: 0x1AF60, size: 0x8, addend: 0x0, symName: __ZNSt3__117__compressed_pairImNS_9allocatorINS_10unique_ptrI13ThreadContextNS_14default_deleteIS3_EEEEEEE5firstB8ne180100Ev, symObjAddr: 0x4A08, symBinAddr: 0x100009A50, symSize: 0x24 }
  - { offset: 0x1AF85, size: 0x8, addend: 0x0, symName: __ZNSt3__122__compressed_pair_elemImLi0ELb0EE5__getB8ne180100Ev, symObjAddr: 0x4A2C, symBinAddr: 0x100009A74, symSize: 0x14 }
  - { offset: 0x1AFA9, size: 0x8, addend: 0x0, symName: __ZNSt3__114__split_bufferIPNS_10unique_ptrI13ThreadContextNS_14default_deleteIS2_EEEENS_9allocatorIS6_EEE19__destruct_at_beginB8ne180100EPS6_, symObjAddr: 0x4A40, symBinAddr: 0x100009A88, symSize: 0x2C }
  - { offset: 0x1AFDC, size: 0x8, addend: 0x0, symName: __ZNSt3__114__split_bufferIPNS_10unique_ptrI13ThreadContextNS_14default_deleteIS2_EEEENS_9allocatorIS6_EEE19__destruct_at_beginEPS6_NS_17integral_constantIbLb1EEE, symObjAddr: 0x4A6C, symBinAddr: 0x100009AB4, symSize: 0x20 }
  - { offset: 0x1B01B, size: 0x8, addend: 0x0, symName: __ZNSt3__19allocatorINS_10unique_ptrI13ThreadContextNS_14default_deleteIS2_EEEEE10deallocateB8ne180100EPS5_m, symObjAddr: 0x4A8C, symBinAddr: 0x100009AD4, symSize: 0x40 }
  - { offset: 0x1B05B, size: 0x8, addend: 0x0, symName: __ZNSt3__117__compressed_pairImNS_9allocatorINS_10unique_ptrI13ThreadContextNS_14default_deleteIS3_EEEEEEE6secondB8ne180100Ev, symObjAddr: 0x4ACC, symBinAddr: 0x100009B14, symSize: 0x24 }
  - { offset: 0x1B080, size: 0x8, addend: 0x0, symName: __ZNSt3__122__compressed_pair_elemINS_9allocatorINS_10unique_ptrI13ThreadContextNS_14default_deleteIS3_EEEEEELi1ELb1EE5__getB8ne180100Ev, symObjAddr: 0x4AF0, symBinAddr: 0x100009B38, symSize: 0x14 }
  - { offset: 0x1B0A5, size: 0x8, addend: 0x0, symName: __ZNSt3__114__split_bufferIPNS_10unique_ptrI13ThreadContextNS_14default_deleteIS2_EEEENS_9allocatorIS6_EEED2Ev, symObjAddr: 0x4B04, symBinAddr: 0x100009B4C, symSize: 0x8C }
  - { offset: 0x1B0CF, size: 0x8, addend: 0x0, symName: __ZNSt3__114__split_bufferIPNS_10unique_ptrI13ThreadContextNS_14default_deleteIS2_EEEENS_9allocatorIS6_EEE5clearB8ne180100Ev, symObjAddr: 0x4B90, symBinAddr: 0x100009BD8, symSize: 0x28 }
  - { offset: 0x1B0F4, size: 0x8, addend: 0x0, symName: __ZNSt3__116allocator_traitsINS_9allocatorIPNS_10unique_ptrI13ThreadContextNS_14default_deleteIS3_EEEEEEE10deallocateB8ne180100ERS8_PS7_m, symObjAddr: 0x4BB8, symBinAddr: 0x100009C00, symSize: 0x34 }
  - { offset: 0x1B135, size: 0x8, addend: 0x0, symName: __ZNSt3__114__split_bufferIPNS_10unique_ptrI13ThreadContextNS_14default_deleteIS2_EEEENS_9allocatorIS6_EEE7__allocB8ne180100Ev, symObjAddr: 0x4BEC, symBinAddr: 0x100009C34, symSize: 0x28 }
  - { offset: 0x1B159, size: 0x8, addend: 0x0, symName: __ZNKSt3__114__split_bufferIPNS_10unique_ptrI13ThreadContextNS_14default_deleteIS2_EEEENS_9allocatorIS6_EEE8capacityB8ne180100Ev, symObjAddr: 0x4C14, symBinAddr: 0x100009C5C, symSize: 0x40 }
  - { offset: 0x1B17D, size: 0x8, addend: 0x0, symName: __ZNSt3__114__split_bufferIPNS_10unique_ptrI13ThreadContextNS_14default_deleteIS2_EEEENS_9allocatorIS6_EEE17__destruct_at_endB8ne180100EPS6_, symObjAddr: 0x4C54, symBinAddr: 0x100009C9C, symSize: 0x2C }
  - { offset: 0x1B1B0, size: 0x8, addend: 0x0, symName: __ZNSt3__114__split_bufferIPNS_10unique_ptrI13ThreadContextNS_14default_deleteIS2_EEEENS_9allocatorIS6_EEE17__destruct_at_endB8ne180100EPS6_NS_17integral_constantIbLb0EEE, symObjAddr: 0x4C80, symBinAddr: 0x100009CC8, symSize: 0x80 }
  - { offset: 0x1B1F0, size: 0x8, addend: 0x0, symName: __ZNSt3__19allocatorIPNS_10unique_ptrI13ThreadContextNS_14default_deleteIS2_EEEEE7destroyB8ne180100EPS6_, symObjAddr: 0x4D40, symBinAddr: 0x100009D5C, symSize: 0x14 }
  - { offset: 0x1B222, size: 0x8, addend: 0x0, symName: __ZNSt3__19allocatorIPNS_10unique_ptrI13ThreadContextNS_14default_deleteIS2_EEEEE10deallocateB8ne180100EPS6_m, symObjAddr: 0x4D54, symBinAddr: 0x100009D70, symSize: 0x40 }
  - { offset: 0x1B262, size: 0x8, addend: 0x0, symName: __ZNSt3__117__compressed_pairIPPNS_10unique_ptrI13ThreadContextNS_14default_deleteIS2_EEEENS_9allocatorIS6_EEE6secondB8ne180100Ev, symObjAddr: 0x4D94, symBinAddr: 0x100009DB0, symSize: 0x24 }
  - { offset: 0x1B287, size: 0x8, addend: 0x0, symName: __ZNSt3__122__compressed_pair_elemINS_9allocatorIPNS_10unique_ptrI13ThreadContextNS_14default_deleteIS3_EEEEEELi1ELb1EE5__getB8ne180100Ev, symObjAddr: 0x4DB8, symBinAddr: 0x100009DD4, symSize: 0x14 }
  - { offset: 0x1B2AB, size: 0x8, addend: 0x0, symName: __ZNKSt3__114__split_bufferIPNS_10unique_ptrI13ThreadContextNS_14default_deleteIS2_EEEENS_9allocatorIS6_EEE9__end_capB8ne180100Ev, symObjAddr: 0x4DCC, symBinAddr: 0x100009DE8, symSize: 0x28 }
  - { offset: 0x1B2CF, size: 0x8, addend: 0x0, symName: __ZNKSt3__117__compressed_pairIPPNS_10unique_ptrI13ThreadContextNS_14default_deleteIS2_EEEENS_9allocatorIS6_EEE5firstB8ne180100Ev, symObjAddr: 0x4DF4, symBinAddr: 0x100009E10, symSize: 0x24 }
  - { offset: 0x1B2F4, size: 0x8, addend: 0x0, symName: __ZNKSt3__122__compressed_pair_elemIPPNS_10unique_ptrI13ThreadContextNS_14default_deleteIS2_EEEELi0ELb0EE5__getB8ne180100Ev, symObjAddr: 0x4E18, symBinAddr: 0x100009E34, symSize: 0x14 }
  - { offset: 0x1B319, size: 0x8, addend: 0x0, symName: __ZNSt3__116allocator_traitsINS_9allocatorINS_20__shared_ptr_emplaceINS_5queueINS_10unique_ptrI13ThreadContextNS_14default_deleteIS5_EEEENS_5dequeIS8_NS1_IS8_EEEEEENS1_ISC_EEEEEEE10deallocateB8ne180100ERSF_PSE_m, symObjAddr: 0x4E2C, symBinAddr: 0x100009E48, symSize: 0x34 }
  - { offset: 0x1B35B, size: 0x8, addend: 0x0, symName: __ZNSt3__114pointer_traitsIPNS_20__shared_ptr_emplaceINS_5queueINS_10unique_ptrI13ThreadContextNS_14default_deleteIS4_EEEENS_5dequeIS7_NS_9allocatorIS7_EEEEEENS9_ISC_EEEEE10pointer_toB8ne180100ERSE_, symObjAddr: 0x4E60, symBinAddr: 0x100009E7C, symSize: 0x14 }
  - { offset: 0x1B37D, size: 0x8, addend: 0x0, symName: __ZNSt3__19allocatorINS_20__shared_ptr_emplaceINS_5queueINS_10unique_ptrI13ThreadContextNS_14default_deleteIS4_EEEENS_5dequeIS7_NS0_IS7_EEEEEENS0_ISB_EEEEE10deallocateB8ne180100EPSD_m, symObjAddr: 0x4E74, symBinAddr: 0x100009E90, symSize: 0x44 }
  - { offset: 0x1B3BE, size: 0x8, addend: 0x0, symName: __ZNSt3__110shared_ptrINS_5queueINS_10unique_ptrI13ThreadContextNS_14default_deleteIS3_EEEENS_5dequeIS6_NS_9allocatorIS6_EEEEEEE18__enable_weak_thisB8ne180100Ez, symObjAddr: 0x4EB8, symBinAddr: 0x100009ED4, symSize: 0x10 }
  - { offset: 0x1B3E3, size: 0x8, addend: 0x0, symName: __ZNSt3__120__shared_ptr_emplaceINS_5queueINS_10unique_ptrI13ThreadContextNS_14default_deleteIS3_EEEENS_5dequeIS6_NS_9allocatorIS6_EEEEEENS8_ISB_EEE8_Storage10__get_elemB8ne180100Ev, symObjAddr: 0x4EC8, symBinAddr: 0x100009EE4, symSize: 0x3C }
  - { offset: 0x1B435, size: 0x8, addend: 0x0, symName: __ZNSt3__117__compressed_pairINS_9allocatorINS_5queueINS_10unique_ptrI13ThreadContextNS_14default_deleteIS4_EEEENS_5dequeIS7_NS1_IS7_EEEEEEEESB_E17__get_second_baseB8ne180100EPSD_, symObjAddr: 0x4F04, symBinAddr: 0x100009F20, symSize: 0x14 }
  - { offset: 0x1B458, size: 0x8, addend: 0x0, symName: __ZNSt3__118__allocation_guardINS_9allocatorINS_20__shared_ptr_emplaceINS_5queueINS_10unique_ptrI13ThreadContextNS_14default_deleteIS5_EEEENS_5dequeIS8_NS1_IS8_EEEEEENS1_ISC_EEEEEEED2B8ne180100Ev, symObjAddr: 0x4F18, symBinAddr: 0x100009F34, symSize: 0x2C }
  - { offset: 0x1B480, size: 0x8, addend: 0x0, symName: __ZNSt3__118__allocation_guardINS_9allocatorINS_20__shared_ptr_emplaceINS_5queueINS_10unique_ptrI13ThreadContextNS_14default_deleteIS5_EEEENS_5dequeIS8_NS1_IS8_EEEEEENS1_ISC_EEEEEEE9__destroyB8ne180100Ev, symObjAddr: 0x4F44, symBinAddr: 0x100009F60, symSize: 0x4C }
  - { offset: 0x1B4A5, size: 0x8, addend: 0x0, symName: __ZNSt3__19allocatorINS_5queueINS_10unique_ptrI13ThreadContextNS_14default_deleteIS3_EEEENS_5dequeIS6_NS0_IS6_EEEEEEEC2B8ne180100Ev, symObjAddr: 0x4F90, symBinAddr: 0x100009FAC, symSize: 0x2C }
  - { offset: 0x1B4CE, size: 0x8, addend: 0x0, symName: __ZNSt3__116__non_trivial_ifILb1ENS_9allocatorINS_5queueINS_10unique_ptrI13ThreadContextNS_14default_deleteIS4_EEEENS_5dequeIS7_NS1_IS7_EEEEEEEEEC2B8ne180100Ev, symObjAddr: 0x4FBC, symBinAddr: 0x100009FD8, symSize: 0x14 }
  - { offset: 0x1B4F7, size: 0x8, addend: 0x0, symName: __ZNSt3__110shared_ptrINS_5queueINS_10unique_ptrI13ThreadContextNS_14default_deleteIS3_EEEENS_5dequeIS6_NS_9allocatorIS6_EEEEEEEC1B8ne180100EOSC_, symObjAddr: 0x4FD0, symBinAddr: 0x100009FEC, symSize: 0x34 }
  - { offset: 0x1B52E, size: 0x8, addend: 0x0, symName: __ZNSt3__110shared_ptrINS_5queueINS_10unique_ptrI13ThreadContextNS_14default_deleteIS3_EEEENS_5dequeIS6_NS_9allocatorIS6_EEEEEEE4swapB8ne180100ERSC_, symObjAddr: 0x5004, symBinAddr: 0x10000A020, symSize: 0x44 }
  - { offset: 0x1B562, size: 0x8, addend: 0x0, symName: __ZNSt3__110shared_ptrINS_5queueINS_10unique_ptrI13ThreadContextNS_14default_deleteIS3_EEEENS_5dequeIS6_NS_9allocatorIS6_EEEEEEEC2B8ne180100EOSC_, symObjAddr: 0x5048, symBinAddr: 0x10000A064, symSize: 0x40 }
  - { offset: 0x1B59A, size: 0x8, addend: 0x0, symName: __ZNSt3__110shared_ptrINS_5queueINS_10unique_ptrI13ThreadContextNS_14default_deleteIS3_EEEENS_5dequeIS6_NS_9allocatorIS6_EEEEEEED2B8ne180100Ev, symObjAddr: 0x50C4, symBinAddr: 0x10000A0E0, symSize: 0x54 }
  - { offset: 0x1B5C3, size: 0x8, addend: 0x0, symName: __ZNSt3__110unique_ptrI13ThreadContextNS_14default_deleteIS1_EEEC2B8ne180100ILb1EvEEPS1_, symObjAddr: 0x5118, symBinAddr: 0x10000A134, symSize: 0x44 }
  - { offset: 0x1B605, size: 0x8, addend: 0x0, symName: __ZNSt3__117__compressed_pairIP13ThreadContextNS_14default_deleteIS1_EEEC1B8ne180100IRS2_NS_16__value_init_tagEEEOT_OT0_, symObjAddr: 0x515C, symBinAddr: 0x10000A178, symSize: 0x3C }
  - { offset: 0x1B65C, size: 0x8, addend: 0x0, symName: __ZNSt3__117__compressed_pairIP13ThreadContextNS_14default_deleteIS1_EEEC2B8ne180100IRS2_NS_16__value_init_tagEEEOT_OT0_, symObjAddr: 0x5198, symBinAddr: 0x10000A1B4, symSize: 0x40 }
  - { offset: 0x1B6B3, size: 0x8, addend: 0x0, symName: __ZNSt3__122__compressed_pair_elemIP13ThreadContextLi0ELb0EEC2B8ne180100IRS2_vEEOT_, symObjAddr: 0x51D8, symBinAddr: 0x10000A1F4, symSize: 0x24 }
  - { offset: 0x1B6F4, size: 0x8, addend: 0x0, symName: __ZNSt3__122__compressed_pair_elemINS_14default_deleteI13ThreadContextEELi1ELb1EEC2B8ne180100ENS_16__value_init_tagE, symObjAddr: 0x51FC, symBinAddr: 0x10000A218, symSize: 0x14 }
  - { offset: 0x1B728, size: 0x8, addend: 0x0, symName: __ZNSt3__110unique_ptrI13ThreadContextNS_14default_deleteIS1_EEED2B8ne180100Ev, symObjAddr: 0x5210, symBinAddr: 0x10000A22C, symSize: 0x30 }
  - { offset: 0x1B750, size: 0x8, addend: 0x0, symName: __ZNSt3__110unique_ptrI13ThreadContextNS_14default_deleteIS1_EEE5resetB8ne180100EPS1_, symObjAddr: 0x5240, symBinAddr: 0x10000A25C, symSize: 0x78 }
  - { offset: 0x1B792, size: 0x8, addend: 0x0, symName: __ZNSt3__117__compressed_pairIP13ThreadContextNS_14default_deleteIS1_EEE5firstB8ne180100Ev, symObjAddr: 0x52B8, symBinAddr: 0x10000A2D4, symSize: 0x24 }
  - { offset: 0x1B7B6, size: 0x8, addend: 0x0, symName: __ZNSt3__117__compressed_pairIP13ThreadContextNS_14default_deleteIS1_EEE6secondB8ne180100Ev, symObjAddr: 0x52DC, symBinAddr: 0x10000A2F8, symSize: 0x24 }
  - { offset: 0x1B7DA, size: 0x8, addend: 0x0, symName: __ZNKSt3__114default_deleteI13ThreadContextEclB8ne180100EPS1_, symObjAddr: 0x5300, symBinAddr: 0x10000A31C, symSize: 0x4C }
  - { offset: 0x1B80D, size: 0x8, addend: 0x0, symName: __ZNSt3__122__compressed_pair_elemIP13ThreadContextLi0ELb0EE5__getB8ne180100Ev, symObjAddr: 0x534C, symBinAddr: 0x10000A368, symSize: 0x14 }
  - { offset: 0x1B832, size: 0x8, addend: 0x0, symName: __ZNSt3__122__compressed_pair_elemINS_14default_deleteI13ThreadContextEELi1ELb1EE5__getB8ne180100Ev, symObjAddr: 0x5360, symBinAddr: 0x10000A37C, symSize: 0x14 }
  - { offset: 0x1B857, size: 0x8, addend: 0x0, symName: __ZNSt3__15dequeINS_10unique_ptrI13ThreadContextNS_14default_deleteIS2_EEEENS_9allocatorIS5_EEE9push_backEOS5_, symObjAddr: 0x53E8, symBinAddr: 0x10000A390, symSize: 0xAC }
  - { offset: 0x1B89B, size: 0x8, addend: 0x0, symName: __ZNKSt3__15dequeINS_10unique_ptrI13ThreadContextNS_14default_deleteIS2_EEEENS_9allocatorIS5_EEE12__back_spareB8ne180100Ev, symObjAddr: 0x5494, symBinAddr: 0x10000A43C, symSize: 0x54 }
  - { offset: 0x1B8C0, size: 0x8, addend: 0x0, symName: __ZNSt3__15dequeINS_10unique_ptrI13ThreadContextNS_14default_deleteIS2_EEEENS_9allocatorIS5_EEE19__add_back_capacityEv, symObjAddr: 0x54E8, symBinAddr: 0x10000A490, symSize: 0x34C }
  - { offset: 0x1B974, size: 0x8, addend: 0x0, symName: __ZNKSt3__15dequeINS_10unique_ptrI13ThreadContextNS_14default_deleteIS2_EEEENS_9allocatorIS5_EEE24__annotate_increase_backB8ne180100Em, symObjAddr: 0x5834, symBinAddr: 0x10000A7DC, symSize: 0x14 }
  - { offset: 0x1B9A8, size: 0x8, addend: 0x0, symName: __ZNSt3__116allocator_traitsINS_9allocatorINS_10unique_ptrI13ThreadContextNS_14default_deleteIS3_EEEEEEE9constructB8ne180100IS6_JS6_EvEEvRS7_PT_DpOT0_, symObjAddr: 0x5848, symBinAddr: 0x10000A7F0, symSize: 0x34 }
  - { offset: 0x1B9FE, size: 0x8, addend: 0x0, symName: __ZNKSt3__15dequeINS_10unique_ptrI13ThreadContextNS_14default_deleteIS2_EEEENS_9allocatorIS5_EEE10__capacityB8ne180100Ev, symObjAddr: 0x587C, symBinAddr: 0x10000A824, symSize: 0x60 }
  - { offset: 0x1BA23, size: 0x8, addend: 0x0, symName: __ZNKSt3__15dequeINS_10unique_ptrI13ThreadContextNS_14default_deleteIS2_EEEENS_9allocatorIS5_EEE13__front_spareB8ne180100Ev, symObjAddr: 0x58DC, symBinAddr: 0x10000A884, symSize: 0x18 }
  - { offset: 0x1BA48, size: 0x8, addend: 0x0, symName: __ZNSt3__114__split_bufferIPNS_10unique_ptrI13ThreadContextNS_14default_deleteIS2_EEEENS_9allocatorIS6_EEE9push_backB8ne180100ERKS6_, symObjAddr: 0x58F4, symBinAddr: 0x10000A89C, symSize: 0x260 }
  - { offset: 0x1BABE, size: 0x8, addend: 0x0, symName: __ZNKSt3__114__split_bufferIPNS_10unique_ptrI13ThreadContextNS_14default_deleteIS2_EEEENS_9allocatorIS6_EEE12__back_spareB8ne180100Ev, symObjAddr: 0x5B54, symBinAddr: 0x10000AAFC, symSize: 0x40 }
  - { offset: 0x1BAE3, size: 0x8, addend: 0x0, symName: __ZNSt3__114__split_bufferIPNS_10unique_ptrI13ThreadContextNS_14default_deleteIS2_EEEENS_9allocatorIS6_EEE9push_backEOS6_, symObjAddr: 0x5B94, symBinAddr: 0x10000AB3C, symSize: 0x260 }
  - { offset: 0x1BB5A, size: 0x8, addend: 0x0, symName: __ZNSt3__116allocator_traitsINS_9allocatorINS_10unique_ptrI13ThreadContextNS_14default_deleteIS3_EEEEEEE8allocateB8ne180100ERS7_m, symObjAddr: 0x5DF4, symBinAddr: 0x10000AD9C, symSize: 0x2C }
  - { offset: 0x1BB8D, size: 0x8, addend: 0x0, symName: __ZNSt3__114__split_bufferIPNS_10unique_ptrI13ThreadContextNS_14default_deleteIS2_EEEENS_9allocatorIS6_EEE10push_frontEOS6_, symObjAddr: 0x5E20, symBinAddr: 0x10000ADC8, symSize: 0x25C }
  - { offset: 0x1BC04, size: 0x8, addend: 0x0, symName: __ZNKSt3__15dequeINS_10unique_ptrI13ThreadContextNS_14default_deleteIS2_EEEENS_9allocatorIS5_EEE22__annotate_whole_blockB8ne180100EmNS8_22__asan_annotation_typeE, symObjAddr: 0x607C, symBinAddr: 0x10000B024, symSize: 0x18 }
  - { offset: 0x1BC47, size: 0x8, addend: 0x0, symName: __ZNSt3__114__split_bufferIPNS_10unique_ptrI13ThreadContextNS_14default_deleteIS2_EEEERNS_9allocatorIS6_EEEC1EmmS9_, symObjAddr: 0x6094, symBinAddr: 0x10000B03C, symSize: 0x44 }
  - { offset: 0x1BCA1, size: 0x8, addend: 0x0, symName: __ZNSt3__122__allocator_destructorINS_9allocatorINS_10unique_ptrI13ThreadContextNS_14default_deleteIS3_EEEEEEEC1B8ne180100ERS7_m, symObjAddr: 0x60D8, symBinAddr: 0x10000B080, symSize: 0x3C }
  - { offset: 0x1BD63, size: 0x8, addend: 0x0, symName: __ZNSt3__110unique_ptrIPNS0_I13ThreadContextNS_14default_deleteIS1_EEEENS_22__allocator_destructorINS_9allocatorIS4_EEEEEC1B8ne180100ILb1EvEES5_NS_16__dependent_typeINS_27__unique_ptr_deleter_sfinaeIS9_EEXT_EE20__good_rval_ref_typeE, symObjAddr: 0x6114, symBinAddr: 0x10000B0BC, symSize: 0x3C }
  - { offset: 0x1BDB3, size: 0x8, addend: 0x0, symName: __ZNSt3__114__split_bufferIPNS_10unique_ptrI13ThreadContextNS_14default_deleteIS2_EEEERNS_9allocatorIS6_EEE9push_backEOS6_, symObjAddr: 0x6150, symBinAddr: 0x10000B0F8, symSize: 0x260 }
  - { offset: 0x1BE29, size: 0x8, addend: 0x0, symName: __ZNKSt3__110unique_ptrIPNS0_I13ThreadContextNS_14default_deleteIS1_EEEENS_22__allocator_destructorINS_9allocatorIS4_EEEEE3getB8ne180100Ev, symObjAddr: 0x63B0, symBinAddr: 0x10000B358, symSize: 0x28 }
  - { offset: 0x1BE4D, size: 0x8, addend: 0x0, symName: __ZNSt3__110unique_ptrIPNS0_I13ThreadContextNS_14default_deleteIS1_EEEENS_22__allocator_destructorINS_9allocatorIS4_EEEEE7releaseB8ne180100Ev, symObjAddr: 0x63D8, symBinAddr: 0x10000B380, symSize: 0x44 }
  - { offset: 0x1BE81, size: 0x8, addend: 0x0, symName: __ZNSt3__114__split_bufferIPNS_10unique_ptrI13ThreadContextNS_14default_deleteIS2_EEEERNS_9allocatorIS6_EEE10push_frontERKS6_, symObjAddr: 0x641C, symBinAddr: 0x10000B3C4, symSize: 0x25C }
  - { offset: 0x1BEF7, size: 0x8, addend: 0x0, symName: __ZNSt3__114__split_bufferIPNS_10unique_ptrI13ThreadContextNS_14default_deleteIS2_EEEENS_9allocatorIS6_EEE9__end_capB8ne180100Ev, symObjAddr: 0x66B4, symBinAddr: 0x10000B65C, symSize: 0x28 }
  - { offset: 0x1BF1B, size: 0x8, addend: 0x0, symName: __ZNSt3__114__split_bufferIPNS_10unique_ptrI13ThreadContextNS_14default_deleteIS2_EEEERNS_9allocatorIS6_EEE9__end_capB8ne180100Ev, symObjAddr: 0x66DC, symBinAddr: 0x10000B684, symSize: 0x28 }
  - { offset: 0x1BF40, size: 0x8, addend: 0x0, symName: __ZNSt3__110unique_ptrIPNS0_I13ThreadContextNS_14default_deleteIS1_EEEENS_22__allocator_destructorINS_9allocatorIS4_EEEEED1B8ne180100Ev, symObjAddr: 0x6704, symBinAddr: 0x10000B6AC, symSize: 0x2C }
  - { offset: 0x1BF69, size: 0x8, addend: 0x0, symName: __ZNSt3__114__split_bufferIPNS_10unique_ptrI13ThreadContextNS_14default_deleteIS2_EEEERNS_9allocatorIS6_EEED1Ev, symObjAddr: 0x6730, symBinAddr: 0x10000B6D8, symSize: 0x2C }
  - { offset: 0x1BF94, size: 0x8, addend: 0x0, symName: __ZNSt3__114__split_bufferIPNS_10unique_ptrI13ThreadContextNS_14default_deleteIS2_EEEERNS_9allocatorIS6_EEE18__construct_at_endINS_13move_iteratorIPS6_EELi0EEEvT_SF_, symObjAddr: 0x679C, symBinAddr: 0x10000B744, symSize: 0x60 }
  - { offset: 0x1BFE7, size: 0x8, addend: 0x0, symName: __ZNSt3__113move_iteratorIPPNS_10unique_ptrI13ThreadContextNS_14default_deleteIS2_EEEEEC1B8ne180100ES7_, symObjAddr: 0x67FC, symBinAddr: 0x10000B7A4, symSize: 0x34 }
  - { offset: 0x1C01E, size: 0x8, addend: 0x0, symName: __ZNSt3__116allocator_traitsINS_9allocatorIPNS_10unique_ptrI13ThreadContextNS_14default_deleteIS3_EEEEEEE9constructB8ne180100IS7_JRKS7_EvEEvRS8_PT_DpOT0_, symObjAddr: 0x6830, symBinAddr: 0x10000B7D8, symSize: 0x34 }
  - { offset: 0x1C097, size: 0x8, addend: 0x0, symName: __ZNKSt3__114__move_trivialclB8ne180100IPNS_10unique_ptrI13ThreadContextNS_14default_deleteIS3_EEEES7_Li0EEENS_4pairIPT_PT0_EESA_SA_SC_, symObjAddr: 0x6A00, symBinAddr: 0x10000B9A8, symSize: 0x48 }
  - { offset: 0x1C104, size: 0x8, addend: 0x0, symName: __ZNSt3__14pairIPPNS_10unique_ptrI13ThreadContextNS_14default_deleteIS2_EEEES7_EC1B8ne180100IRS7_S7_Li0EEEOT_OT0_, symObjAddr: 0x6C28, symBinAddr: 0x10000BBD0, symSize: 0x3C }
  - { offset: 0x1C162, size: 0x8, addend: 0x0, symName: __ZNSt3__14pairIPPNS_10unique_ptrI13ThreadContextNS_14default_deleteIS2_EEEES7_EC2B8ne180100IRS7_S7_Li0EEEOT_OT0_, symObjAddr: 0x6C64, symBinAddr: 0x10000BC0C, symSize: 0x34 }
  - { offset: 0x1C1C0, size: 0x8, addend: 0x0, symName: __ZNSt3__118__unwrap_iter_implIPPNS_10unique_ptrI13ThreadContextNS_14default_deleteIS2_EEEELb1EE8__unwrapB8ne180100ES7_, symObjAddr: 0x6C98, symBinAddr: 0x10000BC40, symSize: 0x24 }
  - { offset: 0x1C1E3, size: 0x8, addend: 0x0, symName: __ZNSt3__14pairIPPNS_10unique_ptrI13ThreadContextNS_14default_deleteIS2_EEEES7_EC1B8ne180100IS7_S7_Li0EEEOT_OT0_, symObjAddr: 0x6CBC, symBinAddr: 0x10000BC64, symSize: 0x3C }
  - { offset: 0x1C241, size: 0x8, addend: 0x0, symName: __ZNSt3__14pairIPPNS_10unique_ptrI13ThreadContextNS_14default_deleteIS2_EEEES7_EC2B8ne180100IS7_S7_Li0EEEOT_OT0_, symObjAddr: 0x6CF8, symBinAddr: 0x10000BCA0, symSize: 0x34 }
  - { offset: 0x1C29F, size: 0x8, addend: 0x0, symName: __ZNSt3__118__unwrap_iter_implIPPNS_10unique_ptrI13ThreadContextNS_14default_deleteIS2_EEEELb1EE8__rewrapB8ne180100ES7_S7_, symObjAddr: 0x6D2C, symBinAddr: 0x10000BCD4, symSize: 0x50 }
  - { offset: 0x1C2D0, size: 0x8, addend: 0x0, symName: __ZNSt3__114__split_bufferIPNS_10unique_ptrI13ThreadContextNS_14default_deleteIS2_EEEERNS_9allocatorIS6_EEE28__construct_at_end_with_sizeINS_13move_iteratorIPS6_EEEEvT_m, symObjAddr: 0x6D7C, symBinAddr: 0x10000BD24, symSize: 0xDC }
  - { offset: 0x1C335, size: 0x8, addend: 0x0, symName: __ZNSt3__114__split_bufferIPNS_10unique_ptrI13ThreadContextNS_14default_deleteIS2_EEEERNS_9allocatorIS6_EEE21_ConstructTransactionC1B8ne180100EPPS6_m, symObjAddr: 0x6E94, symBinAddr: 0x10000BE3C, symSize: 0x3C }
  - { offset: 0x1C37A, size: 0x8, addend: 0x0, symName: __ZNSt3__116allocator_traitsINS_9allocatorIPNS_10unique_ptrI13ThreadContextNS_14default_deleteIS3_EEEEEEE9constructB8ne180100IS7_JS7_EvEEvRS8_PT_DpOT0_, symObjAddr: 0x6ED0, symBinAddr: 0x10000BE78, symSize: 0x34 }
  - { offset: 0x1C3D0, size: 0x8, addend: 0x0, symName: __ZNSt3__114__split_bufferIPNS_10unique_ptrI13ThreadContextNS_14default_deleteIS2_EEEERNS_9allocatorIS6_EEE7__allocB8ne180100Ev, symObjAddr: 0x6F04, symBinAddr: 0x10000BEAC, symSize: 0x28 }
  - { offset: 0x1C3F5, size: 0x8, addend: 0x0, symName: __ZNKSt3__113move_iteratorIPPNS_10unique_ptrI13ThreadContextNS_14default_deleteIS2_EEEEEdeB8ne180100Ev, symObjAddr: 0x6F2C, symBinAddr: 0x10000BED4, symSize: 0x18 }
  - { offset: 0x1C41A, size: 0x8, addend: 0x0, symName: __ZNSt3__113move_iteratorIPPNS_10unique_ptrI13ThreadContextNS_14default_deleteIS2_EEEEEppB8ne180100Ev, symObjAddr: 0x6F44, symBinAddr: 0x10000BEEC, symSize: 0x20 }
  - { offset: 0x1C43F, size: 0x8, addend: 0x0, symName: __ZNSt3__114__split_bufferIPNS_10unique_ptrI13ThreadContextNS_14default_deleteIS2_EEEERNS_9allocatorIS6_EEE21_ConstructTransactionD1B8ne180100Ev, symObjAddr: 0x6F64, symBinAddr: 0x10000BF0C, symSize: 0x2C }
  - { offset: 0x1C468, size: 0x8, addend: 0x0, symName: __ZNSt3__114__split_bufferIPNS_10unique_ptrI13ThreadContextNS_14default_deleteIS2_EEEERNS_9allocatorIS6_EEE21_ConstructTransactionC2B8ne180100EPPS6_m, symObjAddr: 0x6F90, symBinAddr: 0x10000BF38, symSize: 0x44 }
  - { offset: 0x1C4AD, size: 0x8, addend: 0x0, symName: __ZNSt3__19allocatorIPNS_10unique_ptrI13ThreadContextNS_14default_deleteIS2_EEEEE9constructB8ne180100IS6_JS6_EEEvPT_DpOT0_, symObjAddr: 0x6FD4, symBinAddr: 0x10000BF7C, symSize: 0x28 }
  - { offset: 0x1C501, size: 0x8, addend: 0x0, symName: __ZNSt3__117__compressed_pairIPPNS_10unique_ptrI13ThreadContextNS_14default_deleteIS2_EEEERNS_9allocatorIS6_EEE6secondB8ne180100Ev, symObjAddr: 0x6FFC, symBinAddr: 0x10000BFA4, symSize: 0x28 }
  - { offset: 0x1C526, size: 0x8, addend: 0x0, symName: __ZNSt3__122__compressed_pair_elemIRNS_9allocatorIPNS_10unique_ptrI13ThreadContextNS_14default_deleteIS3_EEEEEELi1ELb0EE5__getB8ne180100Ev, symObjAddr: 0x7024, symBinAddr: 0x10000BFCC, symSize: 0x18 }
  - { offset: 0x1C54B, size: 0x8, addend: 0x0, symName: __ZNSt3__114__split_bufferIPNS_10unique_ptrI13ThreadContextNS_14default_deleteIS2_EEEERNS_9allocatorIS6_EEE21_ConstructTransactionD2B8ne180100Ev, symObjAddr: 0x703C, symBinAddr: 0x10000BFE4, symSize: 0x20 }
  - { offset: 0x1C574, size: 0x8, addend: 0x0, symName: __ZNKSt3__113move_iteratorIPPNS_10unique_ptrI13ThreadContextNS_14default_deleteIS2_EEEEE4baseB8ne180100Ev, symObjAddr: 0x70D4, symBinAddr: 0x10000C07C, symSize: 0x18 }
  - { offset: 0x1C599, size: 0x8, addend: 0x0, symName: __ZNSt3__113move_iteratorIPPNS_10unique_ptrI13ThreadContextNS_14default_deleteIS2_EEEEEC2B8ne180100ES7_, symObjAddr: 0x70EC, symBinAddr: 0x10000C094, symSize: 0x20 }
  - { offset: 0x1C5D0, size: 0x8, addend: 0x0, symName: __ZNSt3__19allocatorIPNS_10unique_ptrI13ThreadContextNS_14default_deleteIS2_EEEEE9constructB8ne180100IS6_JRKS6_EEEvPT_DpOT0_, symObjAddr: 0x710C, symBinAddr: 0x10000C0B4, symSize: 0x28 }
  - { offset: 0x1C624, size: 0x8, addend: 0x0, symName: __ZNSt3__19allocatorINS_10unique_ptrI13ThreadContextNS_14default_deleteIS2_EEEEE8allocateB8ne180100Em, symObjAddr: 0x7134, symBinAddr: 0x10000C0DC, symSize: 0x58 }
  - { offset: 0x1C661, size: 0x8, addend: 0x0, symName: __ZNSt3__116allocator_traitsINS_9allocatorINS_10unique_ptrI13ThreadContextNS_14default_deleteIS3_EEEEEEE8max_sizeB8ne180100IS7_vEEmRKS7_, symObjAddr: 0x718C, symBinAddr: 0x10000C134, symSize: 0x24 }
  - { offset: 0x1C68F, size: 0x8, addend: 0x0, symName: __ZNKSt3__19allocatorINS_10unique_ptrI13ThreadContextNS_14default_deleteIS2_EEEEE8max_sizeB8ne180100Ev, symObjAddr: 0x71B0, symBinAddr: 0x10000C158, symSize: 0x14 }
  - { offset: 0x1C6BD, size: 0x8, addend: 0x0, symName: __ZNKSt3__123__move_backward_trivialclB8ne180100IPNS_10unique_ptrI13ThreadContextNS_14default_deleteIS3_EEEES7_Li0EEENS_4pairIPT_PT0_EESA_SA_SC_, symObjAddr: 0x7340, symBinAddr: 0x10000C2E8, symSize: 0x48 }
  - { offset: 0x1C725, size: 0x8, addend: 0x0, symName: __ZNSt3__14pairIPPNS_10unique_ptrI13ThreadContextNS_14default_deleteIS2_EEEES7_EC1B8ne180100IRS7_SA_Li0EEEOT_OT0_, symObjAddr: 0x7450, symBinAddr: 0x10000C3F8, symSize: 0x3C }
  - { offset: 0x1C783, size: 0x8, addend: 0x0, symName: __ZNSt3__14pairIPPNS_10unique_ptrI13ThreadContextNS_14default_deleteIS2_EEEES7_EC2B8ne180100IRS7_SA_Li0EEEOT_OT0_, symObjAddr: 0x748C, symBinAddr: 0x10000C434, symSize: 0x34 }
  - { offset: 0x1C7E1, size: 0x8, addend: 0x0, symName: __ZNSt3__114__split_bufferIPNS_10unique_ptrI13ThreadContextNS_14default_deleteIS2_EEEERNS_9allocatorIS6_EEEC2EmmS9_, symObjAddr: 0x74C0, symBinAddr: 0x10000C468, symSize: 0xD4 }
  - { offset: 0x1C853, size: 0x8, addend: 0x0, symName: __ZNSt3__117__compressed_pairIPPNS_10unique_ptrI13ThreadContextNS_14default_deleteIS2_EEEERNS_9allocatorIS6_EEEC1B8ne180100IDnSA_EEOT_OT0_, symObjAddr: 0x7594, symBinAddr: 0x10000C53C, symSize: 0x3C }
  - { offset: 0x1C8AA, size: 0x8, addend: 0x0, symName: __ZNSt3__117__compressed_pairIPPNS_10unique_ptrI13ThreadContextNS_14default_deleteIS2_EEEERNS_9allocatorIS6_EEEC2B8ne180100IDnSA_EEOT_OT0_, symObjAddr: 0x7610, symBinAddr: 0x10000C5B8, symSize: 0x48 }
  - { offset: 0x1C901, size: 0x8, addend: 0x0, symName: __ZNSt3__122__compressed_pair_elemIRNS_9allocatorIPNS_10unique_ptrI13ThreadContextNS_14default_deleteIS3_EEEEEELi1ELb0EEC2B8ne180100IS9_vEEOT_, symObjAddr: 0x7658, symBinAddr: 0x10000C600, symSize: 0x20 }
  - { offset: 0x1C941, size: 0x8, addend: 0x0, symName: __ZNSt3__19allocatorIPNS_10unique_ptrI13ThreadContextNS_14default_deleteIS2_EEEEE8allocateB8ne180100Em, symObjAddr: 0x7678, symBinAddr: 0x10000C620, symSize: 0x58 }
  - { offset: 0x1C97E, size: 0x8, addend: 0x0, symName: __ZNSt3__116allocator_traitsINS_9allocatorIPNS_10unique_ptrI13ThreadContextNS_14default_deleteIS3_EEEEEEE8max_sizeB8ne180100IS8_vEEmRKS8_, symObjAddr: 0x76D0, symBinAddr: 0x10000C678, symSize: 0x24 }
  - { offset: 0x1C9AC, size: 0x8, addend: 0x0, symName: __ZNKSt3__19allocatorIPNS_10unique_ptrI13ThreadContextNS_14default_deleteIS2_EEEEE8max_sizeB8ne180100Ev, symObjAddr: 0x76F4, symBinAddr: 0x10000C69C, symSize: 0x14 }
  - { offset: 0x1C9D1, size: 0x8, addend: 0x0, symName: __ZNSt3__122__allocator_destructorINS_9allocatorINS_10unique_ptrI13ThreadContextNS_14default_deleteIS3_EEEEEEEC2B8ne180100ERS7_m, symObjAddr: 0x7708, symBinAddr: 0x10000C6B0, symSize: 0x2C }
  - { offset: 0x1CA16, size: 0x8, addend: 0x0, symName: __ZNSt3__110unique_ptrIPNS0_I13ThreadContextNS_14default_deleteIS1_EEEENS_22__allocator_destructorINS_9allocatorIS4_EEEEEC2B8ne180100ILb1EvEES5_NS_16__dependent_typeINS_27__unique_ptr_deleter_sfinaeIS9_EEXT_EE20__good_rval_ref_typeE, symObjAddr: 0x7734, symBinAddr: 0x10000C6DC, symSize: 0x48 }
  - { offset: 0x1CA66, size: 0x8, addend: 0x0, symName: __ZNSt3__117__compressed_pairIPNS_10unique_ptrI13ThreadContextNS_14default_deleteIS2_EEEENS_22__allocator_destructorINS_9allocatorIS5_EEEEEC1B8ne180100IRS6_SA_EEOT_OT0_, symObjAddr: 0x777C, symBinAddr: 0x10000C724, symSize: 0x3C }
  - { offset: 0x1CABD, size: 0x8, addend: 0x0, symName: __ZNSt3__117__compressed_pairIPNS_10unique_ptrI13ThreadContextNS_14default_deleteIS2_EEEENS_22__allocator_destructorINS_9allocatorIS5_EEEEEC2B8ne180100IRS6_SA_EEOT_OT0_, symObjAddr: 0x77B8, symBinAddr: 0x10000C760, symSize: 0x48 }
  - { offset: 0x1CB14, size: 0x8, addend: 0x0, symName: __ZNSt3__122__compressed_pair_elemIPNS_10unique_ptrI13ThreadContextNS_14default_deleteIS2_EEEELi0ELb0EEC2B8ne180100IRS6_vEEOT_, symObjAddr: 0x7800, symBinAddr: 0x10000C7A8, symSize: 0x24 }
  - { offset: 0x1CB55, size: 0x8, addend: 0x0, symName: __ZNSt3__122__compressed_pair_elemINS_22__allocator_destructorINS_9allocatorINS_10unique_ptrI13ThreadContextNS_14default_deleteIS4_EEEEEEEELi1ELb0EEC2B8ne180100IS9_vEEOT_, symObjAddr: 0x7824, symBinAddr: 0x10000C7CC, symSize: 0x24 }
  - { offset: 0x1CB95, size: 0x8, addend: 0x0, symName: __ZNKSt3__117__compressed_pairIPNS_10unique_ptrI13ThreadContextNS_14default_deleteIS2_EEEENS_22__allocator_destructorINS_9allocatorIS5_EEEEE5firstB8ne180100Ev, symObjAddr: 0x7848, symBinAddr: 0x10000C7F0, symSize: 0x24 }
  - { offset: 0x1CBBA, size: 0x8, addend: 0x0, symName: __ZNKSt3__122__compressed_pair_elemIPNS_10unique_ptrI13ThreadContextNS_14default_deleteIS2_EEEELi0ELb0EE5__getB8ne180100Ev, symObjAddr: 0x786C, symBinAddr: 0x10000C814, symSize: 0x14 }
  - { offset: 0x1CBDE, size: 0x8, addend: 0x0, symName: __ZNSt3__117__compressed_pairIPNS_10unique_ptrI13ThreadContextNS_14default_deleteIS2_EEEENS_22__allocator_destructorINS_9allocatorIS5_EEEEE5firstB8ne180100Ev, symObjAddr: 0x7880, symBinAddr: 0x10000C828, symSize: 0x24 }
  - { offset: 0x1CC03, size: 0x8, addend: 0x0, symName: __ZNSt3__122__compressed_pair_elemIPNS_10unique_ptrI13ThreadContextNS_14default_deleteIS2_EEEELi0ELb0EE5__getB8ne180100Ev, symObjAddr: 0x78A4, symBinAddr: 0x10000C84C, symSize: 0x14 }
  - { offset: 0x1CC27, size: 0x8, addend: 0x0, symName: __ZNSt3__117__compressed_pairIPPNS_10unique_ptrI13ThreadContextNS_14default_deleteIS2_EEEENS_9allocatorIS6_EEE5firstB8ne180100Ev, symObjAddr: 0x78B8, symBinAddr: 0x10000C860, symSize: 0x24 }
  - { offset: 0x1CC4C, size: 0x8, addend: 0x0, symName: __ZNSt3__122__compressed_pair_elemIPPNS_10unique_ptrI13ThreadContextNS_14default_deleteIS2_EEEELi0ELb0EE5__getB8ne180100Ev, symObjAddr: 0x78DC, symBinAddr: 0x10000C884, symSize: 0x14 }
  - { offset: 0x1CC70, size: 0x8, addend: 0x0, symName: __ZNSt3__117__compressed_pairIPPNS_10unique_ptrI13ThreadContextNS_14default_deleteIS2_EEEERNS_9allocatorIS6_EEE5firstB8ne180100Ev, symObjAddr: 0x78F0, symBinAddr: 0x10000C898, symSize: 0x24 }
  - { offset: 0x1CC95, size: 0x8, addend: 0x0, symName: __ZNSt3__110unique_ptrIPNS0_I13ThreadContextNS_14default_deleteIS1_EEEENS_22__allocator_destructorINS_9allocatorIS4_EEEEED2B8ne180100Ev, symObjAddr: 0x7914, symBinAddr: 0x10000C8BC, symSize: 0x30 }
  - { offset: 0x1CCBD, size: 0x8, addend: 0x0, symName: __ZNSt3__110unique_ptrIPNS0_I13ThreadContextNS_14default_deleteIS1_EEEENS_22__allocator_destructorINS_9allocatorIS4_EEEEE5resetB8ne180100ES5_, symObjAddr: 0x7944, symBinAddr: 0x10000C8EC, symSize: 0x78 }
  - { offset: 0x1CCFF, size: 0x8, addend: 0x0, symName: __ZNSt3__117__compressed_pairIPNS_10unique_ptrI13ThreadContextNS_14default_deleteIS2_EEEENS_22__allocator_destructorINS_9allocatorIS5_EEEEE6secondB8ne180100Ev, symObjAddr: 0x79BC, symBinAddr: 0x10000C964, symSize: 0x28 }
  - { offset: 0x1CD23, size: 0x8, addend: 0x0, symName: __ZNSt3__122__allocator_destructorINS_9allocatorINS_10unique_ptrI13ThreadContextNS_14default_deleteIS3_EEEEEEEclB8ne180100EPS6_, symObjAddr: 0x79E4, symBinAddr: 0x10000C98C, symSize: 0x34 }
  - { offset: 0x1CD56, size: 0x8, addend: 0x0, symName: __ZNSt3__122__compressed_pair_elemINS_22__allocator_destructorINS_9allocatorINS_10unique_ptrI13ThreadContextNS_14default_deleteIS4_EEEEEEEELi1ELb0EE5__getB8ne180100Ev, symObjAddr: 0x7A18, symBinAddr: 0x10000C9C0, symSize: 0x14 }
  - { offset: 0x1CD7B, size: 0x8, addend: 0x0, symName: __ZNSt3__114__split_bufferIPNS_10unique_ptrI13ThreadContextNS_14default_deleteIS2_EEEERNS_9allocatorIS6_EEED2Ev, symObjAddr: 0x7A2C, symBinAddr: 0x10000C9D4, symSize: 0x8C }
  - { offset: 0x1CDA5, size: 0x8, addend: 0x0, symName: __ZNSt3__114__split_bufferIPNS_10unique_ptrI13ThreadContextNS_14default_deleteIS2_EEEERNS_9allocatorIS6_EEE5clearB8ne180100Ev, symObjAddr: 0x7AB8, symBinAddr: 0x10000CA60, symSize: 0x28 }
  - { offset: 0x1CDC9, size: 0x8, addend: 0x0, symName: __ZNKSt3__114__split_bufferIPNS_10unique_ptrI13ThreadContextNS_14default_deleteIS2_EEEERNS_9allocatorIS6_EEE8capacityB8ne180100Ev, symObjAddr: 0x7AE0, symBinAddr: 0x10000CA88, symSize: 0x40 }
  - { offset: 0x1CDED, size: 0x8, addend: 0x0, symName: __ZNSt3__114__split_bufferIPNS_10unique_ptrI13ThreadContextNS_14default_deleteIS2_EEEERNS_9allocatorIS6_EEE17__destruct_at_endB8ne180100EPS6_, symObjAddr: 0x7B20, symBinAddr: 0x10000CAC8, symSize: 0x2C }
  - { offset: 0x1CE20, size: 0x8, addend: 0x0, symName: __ZNSt3__114__split_bufferIPNS_10unique_ptrI13ThreadContextNS_14default_deleteIS2_EEEERNS_9allocatorIS6_EEE17__destruct_at_endB8ne180100EPS6_NS_17integral_constantIbLb0EEE, symObjAddr: 0x7B4C, symBinAddr: 0x10000CAF4, symSize: 0x80 }
  - { offset: 0x1CE5F, size: 0x8, addend: 0x0, symName: __ZNKSt3__114__split_bufferIPNS_10unique_ptrI13ThreadContextNS_14default_deleteIS2_EEEERNS_9allocatorIS6_EEE9__end_capB8ne180100Ev, symObjAddr: 0x7BCC, symBinAddr: 0x10000CB74, symSize: 0x28 }
  - { offset: 0x1CE83, size: 0x8, addend: 0x0, symName: __ZNKSt3__117__compressed_pairIPPNS_10unique_ptrI13ThreadContextNS_14default_deleteIS2_EEEERNS_9allocatorIS6_EEE5firstB8ne180100Ev, symObjAddr: 0x7BF4, symBinAddr: 0x10000CB9C, symSize: 0x24 }
  - { offset: 0x1CEA7, size: 0x8, addend: 0x0, symName: __ZNSt3__19allocatorINS_10unique_ptrI13ThreadContextNS_14default_deleteIS2_EEEEE9constructB8ne180100IS5_JS5_EEEvPT_DpOT0_, symObjAddr: 0x7C18, symBinAddr: 0x10000CBC0, symSize: 0x30 }
  - { offset: 0x1CEFC, size: 0x8, addend: 0x0, symName: __ZNSt3__110unique_ptrI13ThreadContextNS_14default_deleteIS1_EEEC1B8ne180100EOS4_, symObjAddr: 0x7C48, symBinAddr: 0x10000CBF0, symSize: 0x34 }
  - { offset: 0x1CF33, size: 0x8, addend: 0x0, symName: __ZNSt3__110unique_ptrI13ThreadContextNS_14default_deleteIS1_EEEC2B8ne180100EOS4_, symObjAddr: 0x7C7C, symBinAddr: 0x10000CC24, symSize: 0x60 }
  - { offset: 0x1CF69, size: 0x8, addend: 0x0, symName: __ZNSt3__110unique_ptrI13ThreadContextNS_14default_deleteIS1_EEE7releaseB8ne180100Ev, symObjAddr: 0x7CDC, symBinAddr: 0x10000CC84, symSize: 0x44 }
  - { offset: 0x1CF9C, size: 0x8, addend: 0x0, symName: __ZNSt3__110unique_ptrI13ThreadContextNS_14default_deleteIS1_EEE11get_deleterB8ne180100Ev, symObjAddr: 0x7D20, symBinAddr: 0x10000CCC8, symSize: 0x24 }
  - { offset: 0x1CFCB, size: 0x8, addend: 0x0, symName: __ZNSt3__117__compressed_pairIP13ThreadContextNS_14default_deleteIS1_EEEC1B8ne180100IS2_S4_EEOT_OT0_, symObjAddr: 0x7D44, symBinAddr: 0x10000CCEC, symSize: 0x3C }
  - { offset: 0x1D022, size: 0x8, addend: 0x0, symName: __ZNSt3__117__compressed_pairIP13ThreadContextNS_14default_deleteIS1_EEEC2B8ne180100IS2_S4_EEOT_OT0_, symObjAddr: 0x7D80, symBinAddr: 0x10000CD28, symSize: 0x44 }
  - { offset: 0x1D079, size: 0x8, addend: 0x0, symName: __ZNSt3__122__compressed_pair_elemIP13ThreadContextLi0ELb0EEC2B8ne180100IS2_vEEOT_, symObjAddr: 0x7DC4, symBinAddr: 0x10000CD6C, symSize: 0x24 }
  - { offset: 0x1D0BA, size: 0x8, addend: 0x0, symName: __ZNSt3__122__compressed_pair_elemINS_14default_deleteI13ThreadContextEELi1ELb1EEC2B8ne180100IS3_vEEOT_, symObjAddr: 0x7DE8, symBinAddr: 0x10000CD90, symSize: 0x18 }
  - { offset: 0x1D0FA, size: 0x8, addend: 0x0, symName: __ZNKSt3__15dequeINS_10unique_ptrI13ThreadContextNS_14default_deleteIS2_EEEENS_9allocatorIS5_EEE5emptyB8ne180100Ev, symObjAddr: 0x7E00, symBinAddr: 0x10000CDA8, symSize: 0x30 }
  - { offset: 0x1D11F, size: 0x8, addend: 0x0, symName: __ZNSt3__15dequeINS_10unique_ptrI13ThreadContextNS_14default_deleteIS2_EEEENS_9allocatorIS5_EEE5frontEv, symObjAddr: 0x7E30, symBinAddr: 0x10000CDD8, symSize: 0x50 }
  - { offset: 0x1D146, size: 0x8, addend: 0x0, symName: __ZNSt3__15dequeINS_10unique_ptrI13ThreadContextNS_14default_deleteIS2_EEEENS_9allocatorIS5_EEE9pop_frontEv, symObjAddr: 0x7E80, symBinAddr: 0x10000CE28, symSize: 0xD4 }
  - { offset: 0x1D19A, size: 0x8, addend: 0x0, symName: __ZNKSt3__15dequeINS_10unique_ptrI13ThreadContextNS_14default_deleteIS2_EEEENS_9allocatorIS5_EEE23__annotate_shrink_frontB8ne180100Emm, symObjAddr: 0x7F68, symBinAddr: 0x10000CF10, symSize: 0x18 }
  - { offset: 0x1D1DC, size: 0x8, addend: 0x0, symName: __ZNSt3__15dequeINS_10unique_ptrI13ThreadContextNS_14default_deleteIS2_EEEENS_9allocatorIS5_EEE26__maybe_remove_front_spareB8ne180100Eb, symObjAddr: 0x7F80, symBinAddr: 0x10000CF28, symSize: 0xEC }
  - { offset: 0x1D20F, size: 0x8, addend: 0x0, symName: __ZNKSt3__15dequeINS_10unique_ptrI13ThreadContextNS_14default_deleteIS2_EEEENS_9allocatorIS5_EEE20__front_spare_blocksB8ne180100Ev, symObjAddr: 0x806C, symBinAddr: 0x10000D014, symSize: 0x2C }
  - { offset: 0x1D233, size: 0x8, addend: 0x0, symName: __ZNKSt3__117__compressed_pairIP13ThreadContextNS_14default_deleteIS1_EEE5firstB8ne180100Ev, symObjAddr: 0x8098, symBinAddr: 0x10000D040, symSize: 0x24 }
  - { offset: 0x1D258, size: 0x8, addend: 0x0, symName: __ZNKSt3__122__compressed_pair_elemIP13ThreadContextLi0ELb0EE5__getB8ne180100Ev, symObjAddr: 0x80BC, symBinAddr: 0x10000D064, symSize: 0x14 }
  - { offset: 0x20351, size: 0x8, addend: 0x0, symName: __ZNSt3__134__libcpp_atomic_refcount_incrementB8ne180100IlEET_RS1_, symObjAddr: 0x5814, symBinAddr: 0x10000D8FC, symSize: 0x30 }
  - { offset: 0x21067, size: 0x8, addend: 0x0, symName: __ZN6threadC2EPFvmEm, symObjAddr: 0x0, symBinAddr: 0x10000D078, symSize: 0x23C }
  - { offset: 0x212A0, size: 0x8, addend: 0x0, symName: __ZN3cpu15interrupt_guardC1Ev, symObjAddr: 0x2C0, symBinAddr: 0x10000D2B4, symSize: 0x2C }
  - { offset: 0x212C9, size: 0x8, addend: 0x0, symName: __ZNSt3__110unique_ptrI13ThreadContextNS_14default_deleteIS1_EEEC1B8ne180100ILb1EvEEv, symObjAddr: 0x48C, symBinAddr: 0x10000D2E0, symSize: 0x2C }
  - { offset: 0x212FC, size: 0x8, addend: 0x0, symName: __ZNSt3__110shared_ptrIbEaSB8ne180100ERKS1_, symObjAddr: 0x618, symBinAddr: 0x10000D30C, symSize: 0x50 }
  - { offset: 0x2132F, size: 0x8, addend: 0x0, symName: __ZNSt3__110shared_ptrINS_5queueINS_10unique_ptrI13ThreadContextNS_14default_deleteIS3_EEEENS_5dequeIS6_NS_9allocatorIS6_EEEEEEEaSB8ne180100ERKSC_, symObjAddr: 0x668, symBinAddr: 0x10000D35C, symSize: 0x50 }
  - { offset: 0x21363, size: 0x8, addend: 0x0, symName: __ZN3cpu15interrupt_guardD1Ev, symObjAddr: 0x6E4, symBinAddr: 0x10000D3AC, symSize: 0x2C }
  - { offset: 0x2138B, size: 0x8, addend: 0x0, symName: __ZN6threadC1EPFvmEm, symObjAddr: 0x768, symBinAddr: 0x10000D3D8, symSize: 0x3C }
  - { offset: 0x213D2, size: 0x8, addend: 0x0, symName: __ZN6thread4joinEv, symObjAddr: 0x7A4, symBinAddr: 0x10000D414, symSize: 0x194 }
  - { offset: 0x21407, size: 0x8, addend: 0x0, symName: __ZNKSt3__110shared_ptrIbEdeB8ne180100Ev, symObjAddr: 0x938, symBinAddr: 0x10000D5A8, symSize: 0x18 }
  - { offset: 0x2142C, size: 0x8, addend: 0x0, symName: __ZNKSt3__110shared_ptrINS_5queueINS_10unique_ptrI13ThreadContextNS_14default_deleteIS3_EEEENS_5dequeIS6_NS_9allocatorIS6_EEEEEEEptB8ne180100Ev, symObjAddr: 0x950, symBinAddr: 0x10000D5C0, symSize: 0x18 }
  - { offset: 0x21450, size: 0x8, addend: 0x0, symName: __ZNSt3__15queueINS_10unique_ptrI13ThreadContextNS_14default_deleteIS2_EEEENS_5dequeIS5_NS_9allocatorIS5_EEEEE4backB8ne180100Ev, symObjAddr: 0x9D8, symBinAddr: 0x10000D5D8, symSize: 0x24 }
  - { offset: 0x21475, size: 0x8, addend: 0x0, symName: __ZN6thread5yieldEv, symObjAddr: 0x9FC, symBinAddr: 0x10000D5FC, symSize: 0x50 }
  - { offset: 0x21499, size: 0x8, addend: 0x0, symName: __ZN6threadD2Ev, symObjAddr: 0xA4C, symBinAddr: 0x10000D64C, symSize: 0x44 }
  - { offset: 0x214C3, size: 0x8, addend: 0x0, symName: __ZN6threadD1Ev, symObjAddr: 0xA90, symBinAddr: 0x10000D690, symSize: 0x2C }
  - { offset: 0x214F3, size: 0x8, addend: 0x0, symName: __ZN3cpu15interrupt_guardC2Ev, symObjAddr: 0xBE4, symBinAddr: 0x10000D6BC, symSize: 0x38 }
  - { offset: 0x2151C, size: 0x8, addend: 0x0, symName: __ZNSt3__110unique_ptrI13ThreadContextNS_14default_deleteIS1_EEEC2B8ne180100ILb1EvEEv, symObjAddr: 0xC1C, symBinAddr: 0x10000D6F4, symSize: 0x3C }
  - { offset: 0x21550, size: 0x8, addend: 0x0, symName: __ZNSt3__117__compressed_pairIP13ThreadContextNS_14default_deleteIS1_EEEC1B8ne180100INS_16__value_init_tagES7_EEOT_OT0_, symObjAddr: 0xC58, symBinAddr: 0x10000D730, symSize: 0x3C }
  - { offset: 0x215A7, size: 0x8, addend: 0x0, symName: __ZNSt3__117__compressed_pairIP13ThreadContextNS_14default_deleteIS1_EEEC2B8ne180100INS_16__value_init_tagES7_EEOT_OT0_, symObjAddr: 0xC94, symBinAddr: 0x10000D76C, symSize: 0x3C }
  - { offset: 0x215FE, size: 0x8, addend: 0x0, symName: __ZNSt3__122__compressed_pair_elemIP13ThreadContextLi0ELb0EEC2B8ne180100ENS_16__value_init_tagE, symObjAddr: 0xCD0, symBinAddr: 0x10000D7A8, symSize: 0x18 }
  - { offset: 0x21632, size: 0x8, addend: 0x0, symName: __ZN3cpu15interrupt_guardD2Ev, symObjAddr: 0xCFC, symBinAddr: 0x10000D7C0, symSize: 0x4C }
  - { offset: 0x2165B, size: 0x8, addend: 0x0, symName: __ZNSt3__110shared_ptrIbEC1B8ne180100ERKS1_, symObjAddr: 0x5724, symBinAddr: 0x10000D80C, symSize: 0x34 }
  - { offset: 0x21693, size: 0x8, addend: 0x0, symName: __ZNSt3__110shared_ptrIbEC2B8ne180100ERKS1_, symObjAddr: 0x5758, symBinAddr: 0x10000D840, symSize: 0x70 }
  - { offset: 0x216CA, size: 0x8, addend: 0x0, symName: __ZNSt3__119__shared_weak_count12__add_sharedB8ne180100Ev, symObjAddr: 0x57C8, symBinAddr: 0x10000D8B0, symSize: 0x24 }
  - { offset: 0x216EE, size: 0x8, addend: 0x0, symName: __ZNSt3__114__shared_count12__add_sharedB8ne180100Ev, symObjAddr: 0x57EC, symBinAddr: 0x10000D8D4, symSize: 0x28 }
  - { offset: 0x21713, size: 0x8, addend: 0x0, symName: __ZNSt3__110shared_ptrINS_5queueINS_10unique_ptrI13ThreadContextNS_14default_deleteIS3_EEEENS_5dequeIS6_NS_9allocatorIS6_EEEEEEEC1B8ne180100ERKSC_, symObjAddr: 0x5844, symBinAddr: 0x10000D92C, symSize: 0x34 }
  - { offset: 0x2174B, size: 0x8, addend: 0x0, symName: __ZNSt3__110shared_ptrINS_5queueINS_10unique_ptrI13ThreadContextNS_14default_deleteIS3_EEEENS_5dequeIS6_NS_9allocatorIS6_EEEEEEEC2B8ne180100ERKSC_, symObjAddr: 0x5878, symBinAddr: 0x10000D960, symSize: 0x70 }
  - { offset: 0x2178D, size: 0x8, addend: 0x0, symName: __ZNSt3__15dequeINS_10unique_ptrI13ThreadContextNS_14default_deleteIS2_EEEENS_9allocatorIS5_EEE4backEv, symObjAddr: 0x8530, symBinAddr: 0x10000D9D0, symSize: 0x68 }
  - { offset: 0x236C0, size: 0x8, addend: 0x0, symName: __ZN13ThreadContext6nextIDE, symObjAddr: 0x33938, symBinAddr: 0x100024110, symSize: 0x0 }
  - { offset: 0x25BCC, size: 0x8, addend: 0x0, symName: _readyThreads, symObjAddr: 0x33908, symBinAddr: 0x1000240E0, symSize: 0x0 }
  - { offset: 0x25BE1, size: 0x8, addend: 0x0, symName: _cpuContext, symObjAddr: 0x33940, symBinAddr: 0x100024118, symSize: 0x0 }
  - { offset: 0x25BF6, size: 0x8, addend: 0x0, symName: _currentContext, symObjAddr: 0x33948, symBinAddr: 0x100024120, symSize: 0x0 }
  - { offset: 0x25C0B, size: 0x8, addend: 0x0, symName: _stackPointers, symObjAddr: 0x33950, symBinAddr: 0x100024128, symSize: 0x0 }
  - { offset: 0x25CAF, size: 0x8, addend: 0x0, symName: __Z13threadStarterPFvmEm, symObjAddr: 0x0, symBinAddr: 0x10000DA38, symSize: 0x114 }
  - { offset: 0x25CE6, size: 0x8, addend: 0x0, symName: __Z17go_to_next_threadv, symObjAddr: 0x264, symBinAddr: 0x10000DB4C, symSize: 0xD4 }
  - { offset: 0x25D00, size: 0x8, addend: 0x0, symName: __ZNSt3__16vectorIPcNS_9allocatorIS1_EEEC1B8ne180100Ev, symObjAddr: 0x45C, symBinAddr: 0x10000DC20, symSize: 0x2C }
  - { offset: 0x25D29, size: 0x8, addend: 0x0, symName: __ZNSt3__16vectorIPcNS_9allocatorIS1_EEED1B8ne180100Ev, symObjAddr: 0x488, symBinAddr: 0x10000DC4C, symSize: 0x2C }
  - { offset: 0x25D5C, size: 0x8, addend: 0x0, symName: __ZNSt3__16vectorIPcNS_9allocatorIS1_EEEC2B8ne180100Ev, symObjAddr: 0x4958, symBinAddr: 0x10000DC78, symSize: 0x4C }
  - { offset: 0x25D85, size: 0x8, addend: 0x0, symName: __ZNSt3__117__compressed_pairIPPcNS_9allocatorIS1_EEEC1B8ne180100IDnNS_18__default_init_tagEEEOT_OT0_, symObjAddr: 0x49A4, symBinAddr: 0x10000DCC4, symSize: 0x3C }
  - { offset: 0x25DDC, size: 0x8, addend: 0x0, symName: __ZNSt3__117__compressed_pairIPPcNS_9allocatorIS1_EEEC2B8ne180100IDnNS_18__default_init_tagEEEOT_OT0_, symObjAddr: 0x49E0, symBinAddr: 0x10000DD00, symSize: 0x40 }
  - { offset: 0x25E33, size: 0x8, addend: 0x0, symName: __ZNSt3__122__compressed_pair_elemINS_9allocatorIPcEELi1ELb1EEC2B8ne180100ENS_18__default_init_tagE, symObjAddr: 0x4A3C, symBinAddr: 0x10000DD40, symSize: 0x2C }
  - { offset: 0x25E67, size: 0x8, addend: 0x0, symName: __ZNSt3__19allocatorIPcEC2B8ne180100Ev, symObjAddr: 0x4A68, symBinAddr: 0x10000DD6C, symSize: 0x2C }
  - { offset: 0x25E90, size: 0x8, addend: 0x0, symName: __ZNSt3__116__non_trivial_ifILb1ENS_9allocatorIPcEEEC2B8ne180100Ev, symObjAddr: 0x4A94, symBinAddr: 0x10000DD98, symSize: 0x14 }
  - { offset: 0x25EB9, size: 0x8, addend: 0x0, symName: __ZNSt3__16vectorIPcNS_9allocatorIS1_EEED2B8ne180100Ev, symObjAddr: 0x4AA8, symBinAddr: 0x10000DDAC, symSize: 0x44 }
  - { offset: 0x25EE2, size: 0x8, addend: 0x0, symName: __ZNSt3__16vectorIPcNS_9allocatorIS1_EEE16__destroy_vectorC1B8ne180100ERS4_, symObjAddr: 0x4AEC, symBinAddr: 0x10000DDF0, symSize: 0x34 }
  - { offset: 0x25F19, size: 0x8, addend: 0x0, symName: __ZNSt3__16vectorIPcNS_9allocatorIS1_EEE16__destroy_vectorclB8ne180100Ev, symObjAddr: 0x4B20, symBinAddr: 0x10000DE24, symSize: 0x90 }
  - { offset: 0x25F3E, size: 0x8, addend: 0x0, symName: __ZNSt3__16vectorIPcNS_9allocatorIS1_EEE16__destroy_vectorC2B8ne180100ERS4_, symObjAddr: 0x4BB0, symBinAddr: 0x10000DEB4, symSize: 0x20 }
  - { offset: 0x25F75, size: 0x8, addend: 0x0, symName: __ZNSt3__16vectorIPcNS_9allocatorIS1_EEE7__clearB8ne180100Ev, symObjAddr: 0x4BD0, symBinAddr: 0x10000DED4, symSize: 0x28 }
  - { offset: 0x25F99, size: 0x8, addend: 0x0, symName: __ZNSt3__16vectorIPcNS_9allocatorIS1_EEE22__base_destruct_at_endB8ne180100EPS1_, symObjAddr: 0x4CA4, symBinAddr: 0x10000DEFC, symSize: 0x8C }
  - { offset: 0x2997F, size: 0x8, addend: 0x0, symName: __ZN5mutexC2Ev, symObjAddr: 0x0, symBinAddr: 0x10000DF88, symSize: 0x3C }
  - { offset: 0x299A9, size: 0x8, addend: 0x0, symName: __ZN5mutexC1Ev, symObjAddr: 0x68, symBinAddr: 0x10000DFC4, symSize: 0x2C }
  - { offset: 0x299D4, size: 0x8, addend: 0x0, symName: __ZN5mutex4lockEv, symObjAddr: 0x94, symBinAddr: 0x10000DFF0, symSize: 0x190 }
  - { offset: 0x29A24, size: 0x8, addend: 0x0, symName: __ZN5mutex6unlockEv, symObjAddr: 0x3DC, symBinAddr: 0x10000E180, symSize: 0x150 }
  - { offset: 0x2D57F, size: 0x8, addend: 0x0, symName: __ZN2cvC2Ev, symObjAddr: 0x0, symBinAddr: 0x10000E2D0, symSize: 0x2C }
  - { offset: 0x2D5A9, size: 0x8, addend: 0x0, symName: __ZN2cvC1Ev, symObjAddr: 0x58, symBinAddr: 0x10000E2FC, symSize: 0x2C }
  - { offset: 0x2D5D4, size: 0x8, addend: 0x0, symName: __ZN2cv4waitER5mutex, symObjAddr: 0x84, symBinAddr: 0x10000E328, symSize: 0x350 }
  - { offset: 0x2D648, size: 0x8, addend: 0x0, symName: __ZN2cv6signalEv, symObjAddr: 0x58C, symBinAddr: 0x10000E678, symSize: 0xD8 }
  - { offset: 0x2D691, size: 0x8, addend: 0x0, symName: __ZN2cv9broadcastEv, symObjAddr: 0x6C4, symBinAddr: 0x10000E750, symSize: 0xDC }
  - { offset: 0x2D6D9, size: 0x8, addend: 0x0, symName: __ZN2cvC2EOS_, symObjAddr: 0x7A0, symBinAddr: 0x10000E82C, symSize: 0x3C }
  - { offset: 0x2D711, size: 0x8, addend: 0x0, symName: __ZNSt3__15queueINS_10unique_ptrI13ThreadContextNS_14default_deleteIS2_EEEENS_5dequeIS5_NS_9allocatorIS5_EEEEEaSB8ne180100EOSA_, symObjAddr: 0x7DC, symBinAddr: 0x10000E868, symSize: 0x34 }
  - { offset: 0x2D744, size: 0x8, addend: 0x0, symName: __ZN2cvC1EOS_, symObjAddr: 0x810, symBinAddr: 0x10000E89C, symSize: 0x34 }
  - { offset: 0x2D77D, size: 0x8, addend: 0x0, symName: __ZN2cvaSEOS_, symObjAddr: 0x844, symBinAddr: 0x10000E8D0, symSize: 0x50 }
  - { offset: 0x2D7B2, size: 0x8, addend: 0x0, symName: __ZNSt3__15dequeINS_10unique_ptrI13ThreadContextNS_14default_deleteIS2_EEEENS_9allocatorIS5_EEEaSEOS8_, symObjAddr: 0x480C, symBinAddr: 0x10000E920, symSize: 0x34 }
  - { offset: 0x2D7E8, size: 0x8, addend: 0x0, symName: __ZNSt3__15dequeINS_10unique_ptrI13ThreadContextNS_14default_deleteIS2_EEEENS_9allocatorIS5_EEE13__move_assignERS8_NS_17integral_constantIbLb1EEE, symObjAddr: 0x4840, symBinAddr: 0x10000E954, symSize: 0x40 }
  - { offset: 0x2D82A, size: 0x8, addend: 0x0, symName: __ZNSt3__15dequeINS_10unique_ptrI13ThreadContextNS_14default_deleteIS2_EEEENS_9allocatorIS5_EEE13shrink_to_fitEv, symObjAddr: 0x49F0, symBinAddr: 0x10000E994, symSize: 0xE4 }
  - { offset: 0x2D85F, size: 0x8, addend: 0x0, symName: __ZNSt3__15dequeINS_10unique_ptrI13ThreadContextNS_14default_deleteIS2_EEEENS_9allocatorIS5_EEE13__move_assignB8ne180100ERS8_, symObjAddr: 0x4AD4, symBinAddr: 0x10000EA78, symSize: 0x84 }
  - { offset: 0x2D893, size: 0x8, addend: 0x0, symName: __ZNSt3__114__split_bufferIPNS_10unique_ptrI13ThreadContextNS_14default_deleteIS2_EEEENS_9allocatorIS6_EEE4backB8ne180100Ev, symObjAddr: 0x4CE4, symBinAddr: 0x10000EAFC, symSize: 0x1C }
  - { offset: 0x2D8B7, size: 0x8, addend: 0x0, symName: __ZNSt3__114__split_bufferIPNS_10unique_ptrI13ThreadContextNS_14default_deleteIS2_EEEENS_9allocatorIS6_EEE8pop_backB8ne180100Ev, symObjAddr: 0x4D00, symBinAddr: 0x10000EB18, symSize: 0x2C }
  - { offset: 0x2D8DB, size: 0x8, addend: 0x0, symName: __ZNSt3__15dequeINS_10unique_ptrI13ThreadContextNS_14default_deleteIS2_EEEENS_9allocatorIS5_EEE25__maybe_remove_back_spareB8ne180100Eb, symObjAddr: 0x4D2C, symBinAddr: 0x10000EB44, symSize: 0xE8 }
  - { offset: 0x2D90F, size: 0x8, addend: 0x0, symName: __ZNSt3__114__split_bufferIPNS_10unique_ptrI13ThreadContextNS_14default_deleteIS2_EEEENS_9allocatorIS6_EEE13shrink_to_fitEv, symObjAddr: 0x4E14, symBinAddr: 0x10000EC2C, symSize: 0x188 }
  - { offset: 0x2D94A, size: 0x8, addend: 0x0, symName: __ZNKSt3__15dequeINS_10unique_ptrI13ThreadContextNS_14default_deleteIS2_EEEENS_9allocatorIS5_EEE19__back_spare_blocksB8ne180100Ev, symObjAddr: 0x5048, symBinAddr: 0x10000EDB4, symSize: 0x2C }
  - { offset: 0x2D96F, size: 0x8, addend: 0x0, symName: __ZNSt3__114__split_bufferIPNS_10unique_ptrI13ThreadContextNS_14default_deleteIS2_EEEENS_9allocatorIS6_EEEaSEOS9_, symObjAddr: 0x5074, symBinAddr: 0x10000EDE0, symSize: 0xBC }
  - { offset: 0x2D9A3, size: 0x8, addend: 0x0, symName: __ZNSt3__15dequeINS_10unique_ptrI13ThreadContextNS_14default_deleteIS2_EEEENS_9allocatorIS5_EEE19__move_assign_allocB8ne180100ERS8_, symObjAddr: 0x5130, symBinAddr: 0x10000EE9C, symSize: 0x2C }
  - { offset: 0x2D9D6, size: 0x8, addend: 0x0, symName: __ZNSt3__114__split_bufferIPNS_10unique_ptrI13ThreadContextNS_14default_deleteIS2_EEEENS_9allocatorIS6_EEE19__move_assign_allocB8ne180100ERS9_NS_17integral_constantIbLb1EEE, symObjAddr: 0x5184, symBinAddr: 0x10000EEC8, symSize: 0x38 }
  - { offset: 0x2DA13, size: 0x8, addend: 0x0, symName: __ZNSt3__15dequeINS_10unique_ptrI13ThreadContextNS_14default_deleteIS2_EEEENS_9allocatorIS5_EEE19__move_assign_allocB8ne180100ERS8_NS_17integral_constantIbLb1EEE, symObjAddr: 0x51BC, symBinAddr: 0x10000EF00, symSize: 0x38 }
...
